ARM GAS  C:\Users\nkhedkar\AppData\Local\Temp\ccs299tO.s 			page 1


   1              		.syntax unified
   2              		.cpu cortex-m3
   3              		.fpu softvfp
   4              		.eabi_attribute 20, 1
   5              		.eabi_attribute 21, 1
   6              		.eabi_attribute 23, 3
   7              		.eabi_attribute 24, 1
   8              		.eabi_attribute 25, 1
   9              		.eabi_attribute 26, 1
  10              		.eabi_attribute 30, 1
  11              		.eabi_attribute 34, 1
  12              		.eabi_attribute 18, 4
  13              		.thumb
  14              		.syntax unified
  15              		.file	"Counter_PM.c"
  16              		.text
  17              	.Ltext0:
  18              		.cfi_sections	.debug_frame
  19              		.section	.text.Counter_SaveConfig,"ax",%progbits
  20              		.align	2
  21              		.global	Counter_SaveConfig
  22              		.thumb
  23              		.thumb_func
  24              		.type	Counter_SaveConfig, %function
  25              	Counter_SaveConfig:
  26              	.LFB0:
  27              		.file 1 "Generated_Source\\PSoC5\\Counter_PM.c"
   1:Generated_Source\PSoC5/Counter_PM.c **** /*******************************************************************************
   2:Generated_Source\PSoC5/Counter_PM.c **** * File Name: Counter_PM.c
   3:Generated_Source\PSoC5/Counter_PM.c **** * Version 1.0
   4:Generated_Source\PSoC5/Counter_PM.c **** *
   5:Generated_Source\PSoC5/Counter_PM.c **** * Description:
   6:Generated_Source\PSoC5/Counter_PM.c **** *  This file provides Low power mode APIs for Count7 component.
   7:Generated_Source\PSoC5/Counter_PM.c **** *
   8:Generated_Source\PSoC5/Counter_PM.c **** * Note:
   9:Generated_Source\PSoC5/Counter_PM.c **** *  None
  10:Generated_Source\PSoC5/Counter_PM.c **** *
  11:Generated_Source\PSoC5/Counter_PM.c **** ********************************************************************************
  12:Generated_Source\PSoC5/Counter_PM.c **** * Copyright 2013, Cypress Semiconductor Corporation.  All rights reserved.
  13:Generated_Source\PSoC5/Counter_PM.c **** * You may use this file only in accordance with the license, terms, conditions,
  14:Generated_Source\PSoC5/Counter_PM.c **** * disclaimers, and limitations in the end user license agreement accompanying
  15:Generated_Source\PSoC5/Counter_PM.c **** * the software package with which this file was provided.
  16:Generated_Source\PSoC5/Counter_PM.c **** *******************************************************************************/
  17:Generated_Source\PSoC5/Counter_PM.c **** 
  18:Generated_Source\PSoC5/Counter_PM.c **** #include "Counter.h"
  19:Generated_Source\PSoC5/Counter_PM.c **** 
  20:Generated_Source\PSoC5/Counter_PM.c **** 
  21:Generated_Source\PSoC5/Counter_PM.c **** Counter_BACKUP_STRUCT Counter_backup;
  22:Generated_Source\PSoC5/Counter_PM.c **** 
  23:Generated_Source\PSoC5/Counter_PM.c **** 
  24:Generated_Source\PSoC5/Counter_PM.c **** /*******************************************************************************
  25:Generated_Source\PSoC5/Counter_PM.c **** * Function Name: Counter_SaveConfig
  26:Generated_Source\PSoC5/Counter_PM.c **** ********************************************************************************
  27:Generated_Source\PSoC5/Counter_PM.c **** *
  28:Generated_Source\PSoC5/Counter_PM.c **** * Summary:
  29:Generated_Source\PSoC5/Counter_PM.c **** *  This function saves the component configuration and non-retention registers.
  30:Generated_Source\PSoC5/Counter_PM.c **** *  This function is called by the Count7_Sleep() function.
ARM GAS  C:\Users\nkhedkar\AppData\Local\Temp\ccs299tO.s 			page 2


  31:Generated_Source\PSoC5/Counter_PM.c **** *
  32:Generated_Source\PSoC5/Counter_PM.c **** * Parameters:
  33:Generated_Source\PSoC5/Counter_PM.c **** *  None
  34:Generated_Source\PSoC5/Counter_PM.c **** *
  35:Generated_Source\PSoC5/Counter_PM.c **** * Return:
  36:Generated_Source\PSoC5/Counter_PM.c **** *  None
  37:Generated_Source\PSoC5/Counter_PM.c **** *
  38:Generated_Source\PSoC5/Counter_PM.c **** * Global Variables:
  39:Generated_Source\PSoC5/Counter_PM.c **** *  Counter_backup - used to save component configuration and non-
  40:Generated_Source\PSoC5/Counter_PM.c **** *  retention registers before enter sleep mode.
  41:Generated_Source\PSoC5/Counter_PM.c **** *
  42:Generated_Source\PSoC5/Counter_PM.c **** *******************************************************************************/
  43:Generated_Source\PSoC5/Counter_PM.c **** void Counter_SaveConfig(void) 
  44:Generated_Source\PSoC5/Counter_PM.c **** {
  28              		.loc 1 44 0
  29              		.cfi_startproc
  30              		@ args = 0, pretend = 0, frame = 0
  31              		@ frame_needed = 0, uses_anonymous_args = 0
  32              		@ link register save eliminated.
  45:Generated_Source\PSoC5/Counter_PM.c ****     Counter_backup.count = Counter_COUNT_REG;
  33              		.loc 1 45 0
  34 0000 024B     		ldr	r3, .L2
  35 0002 1A78     		ldrb	r2, [r3]	@ zero_extendqisi2
  36 0004 024B     		ldr	r3, .L2+4
  37 0006 5A70     		strb	r2, [r3, #1]
  38 0008 7047     		bx	lr
  39              	.L3:
  40 000a 00BF     		.align	2
  41              	.L2:
  42 000c 72640040 		.word	1073767538
  43 0010 00000000 		.word	Counter_backup
  44              		.cfi_endproc
  45              	.LFE0:
  46              		.size	Counter_SaveConfig, .-Counter_SaveConfig
  47              		.section	.text.Counter_Sleep,"ax",%progbits
  48              		.align	2
  49              		.global	Counter_Sleep
  50              		.thumb
  51              		.thumb_func
  52              		.type	Counter_Sleep, %function
  53              	Counter_Sleep:
  54              	.LFB1:
  46:Generated_Source\PSoC5/Counter_PM.c **** }
  47:Generated_Source\PSoC5/Counter_PM.c **** 
  48:Generated_Source\PSoC5/Counter_PM.c **** 
  49:Generated_Source\PSoC5/Counter_PM.c **** /*******************************************************************************
  50:Generated_Source\PSoC5/Counter_PM.c **** * Function Name: Counter_Sleep
  51:Generated_Source\PSoC5/Counter_PM.c **** ********************************************************************************
  52:Generated_Source\PSoC5/Counter_PM.c **** *
  53:Generated_Source\PSoC5/Counter_PM.c **** * Summary:
  54:Generated_Source\PSoC5/Counter_PM.c **** *  This is the preferred API to prepare the component for low power mode
  55:Generated_Source\PSoC5/Counter_PM.c **** *  operation. The Count7_Sleep() API saves the current component state using
  56:Generated_Source\PSoC5/Counter_PM.c **** *  Count7_SaveConfig() and disables the counter.
  57:Generated_Source\PSoC5/Counter_PM.c **** *
  58:Generated_Source\PSoC5/Counter_PM.c **** * Parameters:
  59:Generated_Source\PSoC5/Counter_PM.c **** *  None
  60:Generated_Source\PSoC5/Counter_PM.c **** *
ARM GAS  C:\Users\nkhedkar\AppData\Local\Temp\ccs299tO.s 			page 3


  61:Generated_Source\PSoC5/Counter_PM.c **** * Return:
  62:Generated_Source\PSoC5/Counter_PM.c **** *  None
  63:Generated_Source\PSoC5/Counter_PM.c **** *
  64:Generated_Source\PSoC5/Counter_PM.c **** *******************************************************************************/
  65:Generated_Source\PSoC5/Counter_PM.c **** void Counter_Sleep(void) 
  66:Generated_Source\PSoC5/Counter_PM.c **** {
  55              		.loc 1 66 0
  56              		.cfi_startproc
  57              		@ args = 0, pretend = 0, frame = 0
  58              		@ frame_needed = 0, uses_anonymous_args = 0
  59 0000 08B5     		push	{r3, lr}
  60              		.cfi_def_cfa_offset 8
  61              		.cfi_offset 3, -8
  62              		.cfi_offset 14, -4
  67:Generated_Source\PSoC5/Counter_PM.c ****     if(0u != (Counter_AUX_CONTROL_REG & Counter_COUNTER_START))
  63              		.loc 1 67 0
  64 0002 084B     		ldr	r3, .L8
  65 0004 1B78     		ldrb	r3, [r3]	@ zero_extendqisi2
  66 0006 13F0200F 		tst	r3, #32
  67 000a 05D0     		beq	.L5
  68:Generated_Source\PSoC5/Counter_PM.c ****     {
  69:Generated_Source\PSoC5/Counter_PM.c ****         Counter_backup.enableState = 1u;
  68              		.loc 1 69 0
  69 000c 0122     		movs	r2, #1
  70 000e 064B     		ldr	r3, .L8+4
  71 0010 1A70     		strb	r2, [r3]
  70:Generated_Source\PSoC5/Counter_PM.c ****         Counter_Stop();
  72              		.loc 1 70 0
  73 0012 FFF7FEFF 		bl	Counter_Stop
  74              	.LVL0:
  75 0016 02E0     		b	.L6
  76              	.L5:
  71:Generated_Source\PSoC5/Counter_PM.c ****     }
  72:Generated_Source\PSoC5/Counter_PM.c ****     else
  73:Generated_Source\PSoC5/Counter_PM.c ****     {
  74:Generated_Source\PSoC5/Counter_PM.c ****         Counter_backup.enableState = 0u;
  77              		.loc 1 74 0
  78 0018 0022     		movs	r2, #0
  79 001a 034B     		ldr	r3, .L8+4
  80 001c 1A70     		strb	r2, [r3]
  81              	.L6:
  75:Generated_Source\PSoC5/Counter_PM.c ****     }
  76:Generated_Source\PSoC5/Counter_PM.c **** 
  77:Generated_Source\PSoC5/Counter_PM.c ****     Counter_SaveConfig();
  82              		.loc 1 77 0
  83 001e FFF7FEFF 		bl	Counter_SaveConfig
  84              	.LVL1:
  85 0022 08BD     		pop	{r3, pc}
  86              	.L9:
  87              		.align	2
  88              	.L8:
  89 0024 92640040 		.word	1073767570
  90 0028 00000000 		.word	Counter_backup
  91              		.cfi_endproc
  92              	.LFE1:
  93              		.size	Counter_Sleep, .-Counter_Sleep
  94              		.section	.text.Counter_RestoreConfig,"ax",%progbits
ARM GAS  C:\Users\nkhedkar\AppData\Local\Temp\ccs299tO.s 			page 4


  95              		.align	2
  96              		.global	Counter_RestoreConfig
  97              		.thumb
  98              		.thumb_func
  99              		.type	Counter_RestoreConfig, %function
 100              	Counter_RestoreConfig:
 101              	.LFB2:
  78:Generated_Source\PSoC5/Counter_PM.c **** }
  79:Generated_Source\PSoC5/Counter_PM.c **** 
  80:Generated_Source\PSoC5/Counter_PM.c **** 
  81:Generated_Source\PSoC5/Counter_PM.c **** /*******************************************************************************
  82:Generated_Source\PSoC5/Counter_PM.c **** * Function Name: Counter_RestoreConfig
  83:Generated_Source\PSoC5/Counter_PM.c **** ********************************************************************************
  84:Generated_Source\PSoC5/Counter_PM.c **** *
  85:Generated_Source\PSoC5/Counter_PM.c **** * Summary:
  86:Generated_Source\PSoC5/Counter_PM.c **** *  This function restores the component configuration and non-retention
  87:Generated_Source\PSoC5/Counter_PM.c **** *  registers. This function is called by the Count7_Wakeup() function.
  88:Generated_Source\PSoC5/Counter_PM.c **** *
  89:Generated_Source\PSoC5/Counter_PM.c **** * Parameters:
  90:Generated_Source\PSoC5/Counter_PM.c **** *  None
  91:Generated_Source\PSoC5/Counter_PM.c **** *
  92:Generated_Source\PSoC5/Counter_PM.c **** * Return:
  93:Generated_Source\PSoC5/Counter_PM.c **** *  None
  94:Generated_Source\PSoC5/Counter_PM.c **** *
  95:Generated_Source\PSoC5/Counter_PM.c **** * Global Variables:
  96:Generated_Source\PSoC5/Counter_PM.c **** *  Counter_backup - used to save component configuration and
  97:Generated_Source\PSoC5/Counter_PM.c **** *  non-retention registers before exit sleep mode.
  98:Generated_Source\PSoC5/Counter_PM.c **** *
  99:Generated_Source\PSoC5/Counter_PM.c **** *******************************************************************************/
 100:Generated_Source\PSoC5/Counter_PM.c **** void Counter_RestoreConfig(void) 
 101:Generated_Source\PSoC5/Counter_PM.c **** {
 102              		.loc 1 101 0
 103              		.cfi_startproc
 104              		@ args = 0, pretend = 0, frame = 0
 105              		@ frame_needed = 0, uses_anonymous_args = 0
 106              		@ link register save eliminated.
 102:Generated_Source\PSoC5/Counter_PM.c ****     Counter_COUNT_REG = Counter_backup.count;
 107              		.loc 1 102 0
 108 0000 024B     		ldr	r3, .L11
 109 0002 5A78     		ldrb	r2, [r3, #1]	@ zero_extendqisi2
 110 0004 024B     		ldr	r3, .L11+4
 111 0006 1A70     		strb	r2, [r3]
 112 0008 7047     		bx	lr
 113              	.L12:
 114 000a 00BF     		.align	2
 115              	.L11:
 116 000c 00000000 		.word	Counter_backup
 117 0010 72640040 		.word	1073767538
 118              		.cfi_endproc
 119              	.LFE2:
 120              		.size	Counter_RestoreConfig, .-Counter_RestoreConfig
 121              		.section	.text.Counter_Wakeup,"ax",%progbits
 122              		.align	2
 123              		.global	Counter_Wakeup
 124              		.thumb
 125              		.thumb_func
 126              		.type	Counter_Wakeup, %function
ARM GAS  C:\Users\nkhedkar\AppData\Local\Temp\ccs299tO.s 			page 5


 127              	Counter_Wakeup:
 128              	.LFB3:
 103:Generated_Source\PSoC5/Counter_PM.c **** }
 104:Generated_Source\PSoC5/Counter_PM.c **** 
 105:Generated_Source\PSoC5/Counter_PM.c **** 
 106:Generated_Source\PSoC5/Counter_PM.c **** /*******************************************************************************
 107:Generated_Source\PSoC5/Counter_PM.c **** * Function Name: Counter_Wakeup
 108:Generated_Source\PSoC5/Counter_PM.c **** ********************************************************************************
 109:Generated_Source\PSoC5/Counter_PM.c **** *
 110:Generated_Source\PSoC5/Counter_PM.c **** * Summary:
 111:Generated_Source\PSoC5/Counter_PM.c **** *  This is the preferred API to restore the component to the state when
 112:Generated_Source\PSoC5/Counter_PM.c **** *  Count7_Sleep() was called. The Count7_Wakeup() function calls the
 113:Generated_Source\PSoC5/Counter_PM.c **** *  Count7_RestoreConfig() function to restore the configuration.
 114:Generated_Source\PSoC5/Counter_PM.c **** *
 115:Generated_Source\PSoC5/Counter_PM.c **** * Parameters:
 116:Generated_Source\PSoC5/Counter_PM.c **** *  None
 117:Generated_Source\PSoC5/Counter_PM.c **** *
 118:Generated_Source\PSoC5/Counter_PM.c **** * Return:
 119:Generated_Source\PSoC5/Counter_PM.c **** *  None
 120:Generated_Source\PSoC5/Counter_PM.c **** *
 121:Generated_Source\PSoC5/Counter_PM.c **** *******************************************************************************/
 122:Generated_Source\PSoC5/Counter_PM.c **** void Counter_Wakeup(void) 
 123:Generated_Source\PSoC5/Counter_PM.c **** {
 129              		.loc 1 123 0
 130              		.cfi_startproc
 131              		@ args = 0, pretend = 0, frame = 0
 132              		@ frame_needed = 0, uses_anonymous_args = 0
 133 0000 08B5     		push	{r3, lr}
 134              		.cfi_def_cfa_offset 8
 135              		.cfi_offset 3, -8
 136              		.cfi_offset 14, -4
 124:Generated_Source\PSoC5/Counter_PM.c ****     Counter_RestoreConfig();
 137              		.loc 1 124 0
 138 0002 FFF7FEFF 		bl	Counter_RestoreConfig
 139              	.LVL2:
 125:Generated_Source\PSoC5/Counter_PM.c **** 
 126:Generated_Source\PSoC5/Counter_PM.c ****     /* Restore enable state */
 127:Generated_Source\PSoC5/Counter_PM.c ****     if (Counter_backup.enableState != 0u)
 140              		.loc 1 127 0
 141 0006 034B     		ldr	r3, .L16
 142 0008 1B78     		ldrb	r3, [r3]	@ zero_extendqisi2
 143 000a 0BB1     		cbz	r3, .L13
 128:Generated_Source\PSoC5/Counter_PM.c ****     {
 129:Generated_Source\PSoC5/Counter_PM.c ****         Counter_Enable();
 144              		.loc 1 129 0
 145 000c FFF7FEFF 		bl	Counter_Enable
 146              	.LVL3:
 147              	.L13:
 148 0010 08BD     		pop	{r3, pc}
 149              	.L17:
 150 0012 00BF     		.align	2
 151              	.L16:
 152 0014 00000000 		.word	Counter_backup
 153              		.cfi_endproc
 154              	.LFE3:
 155              		.size	Counter_Wakeup, .-Counter_Wakeup
 156              		.comm	Counter_backup,2,4
ARM GAS  C:\Users\nkhedkar\AppData\Local\Temp\ccs299tO.s 			page 6


 157              		.text
 158              	.Letext0:
 159              		.file 2 "Generated_Source\\PSoC5\\cytypes.h"
 160              		.file 3 "Generated_Source\\PSoC5\\Counter.h"