ARM GAS  C:\Users\Dhyan\AppData\Local\Temp\ccpI2LNf.s 			page 1


   1              		.syntax unified
   2              		.cpu cortex-m3
   3              		.fpu softvfp
   4              		.eabi_attribute 20, 1
   5              		.eabi_attribute 21, 1
   6              		.eabi_attribute 23, 3
   7              		.eabi_attribute 24, 1
   8              		.eabi_attribute 25, 1
   9              		.eabi_attribute 26, 1
  10              		.eabi_attribute 30, 1
  11              		.eabi_attribute 34, 1
  12              		.eabi_attribute 18, 4
  13              		.thumb
  14              		.syntax unified
  15              		.file	"main.c"
  16              		.text
  17              	.Ltext0:
  18              		.cfi_sections	.debug_frame
  19              		.section	.text.inter1,"ax",%progbits
  20              		.align	2
  21              		.global	inter1
  22              		.thumb
  23              		.thumb_func
  24              		.type	inter1, %function
  25              	inter1:
  26              	.LFB64:
  27              		.file 1 "main.c"
   1:main.c        **** /* ========================================
   2:main.c        ****  *
   3:main.c        ****  * Copyright YOUR COMPANY, THE YEAR
   4:main.c        ****  * All Rights Reserved
   5:main.c        ****  * UNPUBLISHED, LICENSED SOFTWARE.
   6:main.c        ****  *
   7:main.c        ****  * CONFIDENTIAL AND PROPRIETARY INFORMATION
   8:main.c        ****  * WHICH IS THE PROPERTY OF your company.
   9:main.c        ****  *
  10:main.c        ****  * ========================================
  11:main.c        **** */
  12:main.c        **** #include "project.h"
  13:main.c        **** #include "stdio.h"
  14:main.c        **** 
  15:main.c        **** // Error checking - FINAL mean Speed
  16:main.c        **** int ticks = 0;
  17:main.c        **** double time = 0;
  18:main.c        **** 
  19:main.c        **** // Constants
  20:main.c        **** double PI = 3.141592;       // pi approximation
  21:main.c        **** double LENGTH = 0.12435;    //(D=2.375in) in ft (distance to travel 1/5 of a rotation)
  22:main.c        **** double FREQ = 10000;        // clock freqency
  23:main.c        **** double COUNTDOWN = 65536;   // max of 8-bit counter for Timer module
  24:main.c        **** int ON = 255;               // sets pwm to 255
  25:main.c        **** int OFF = 0;                // sets pwm to 0
  26:main.c        **** int TICKCUTOFF = 338;       // maximum number of ticks seen before robot stops moving
  27:main.c        **** 
  28:main.c        **** // used to deal with countdown timer underflow issues
  29:main.c        **** int oldTime = 0;
  30:main.c        **** int currentTime = 0;
ARM GAS  C:\Users\Dhyan\AppData\Local\Temp\ccpI2LNf.s 			page 2


  31:main.c        **** 
  32:main.c        **** 
  33:main.c        **** double setSpeed = 4.0;      // optimal speed target [ft/s]
  34:main.c        **** double KP = 280;            // proportional control param
  35:main.c        **** double KI = 5;              // integral control param
  36:main.c        **** double KD = 15;             // derivative control param
  37:main.c        **** 
  38:main.c        **** char strbuf[16];            // buffer for lcd display
  39:main.c        **** char uartbuf[128];          // buffer for UART remote data collection
  40:main.c        **** 
  41:main.c        **** double eTime;               // elapsed time
  42:main.c        **** double speed;               // current calculated speed
  43:main.c        **** double error;               // delta between current speed and optimal speed
  44:main.c        **** 
  45:main.c        **** double oldError = 4.0;      // error memory used in derivative control
  46:main.c        **** double errorDiff;           // error delta for old and current error used in derivative control
  47:main.c        **** 
  48:main.c        **** double sum = 0;             // error sum used in integral control
  49:main.c        **** double avgError;            // avg error used in integral control
  50:main.c        **** 
  51:main.c        **** double dutyCycle;           // outputed duty cycle
  52:main.c        **** 
  53:main.c        **** double lineTime;            // time to detect line in a given row
  54:main.c        **** int PICWIDTH = 320;         // number of pixels going sideways across a video image
  55:main.c        **** int PICHEIGHT = 240;        // number of pixels going down a video image
  56:main.c        **** int FPS = 30;               // frames per second
  57:main.c        **** int LPF = 525;              // number of lines per frame (standard)
  58:main.c        **** int LPS;                    // lines per second (LPF * FPS)
  59:main.c        **** double HFREQ;               // frequency of line reads
  60:main.c        **** int VFREQ = 60;             // frequency of frame reads
  61:main.c        **** int OEFREQ = 30;            // frequency of original frame reads (since 2 copies per frame)
  62:main.c        **** 
  63:main.c        **** // interrupt flags
  64:main.c        **** int hallFlag = 0;
  65:main.c        **** int newFrameFlag = 0;
  66:main.c        **** // int useCamFlag = 0;
  67:main.c        **** int blackFlag = 0;
  68:main.c        **** 
  69:main.c        **** // navigation
  70:main.c        **** double firstPixelTime;
  71:main.c        **** int XSHSync = 16;           // number of hSync highs after oddeven high before frame begins
  72:main.c        **** 
  73:main.c        **** 
  74:main.c        **** // interrupt sets hall flag to 1 when magnet is passed over HE
  75:main.c        **** CY_ISR(inter1) {
  28              		.loc 1 75 0
  29              		.cfi_startproc
  30              		@ args = 0, pretend = 0, frame = 0
  31              		@ frame_needed = 0, uses_anonymous_args = 0
  32              		@ link register save eliminated.
  76:main.c        ****     hallFlag = 1;
  33              		.loc 1 76 0
  34 0000 0122     		movs	r2, #1
  35 0002 014B     		ldr	r3, .L2
  36 0004 1A60     		str	r2, [r3]
  37 0006 7047     		bx	lr
  38              	.L3:
ARM GAS  C:\Users\Dhyan\AppData\Local\Temp\ccpI2LNf.s 			page 3


  39              		.align	2
  40              	.L2:
  41 0008 00000000 		.word	.LANCHOR0
  42              		.cfi_endproc
  43              	.LFE64:
  44              		.size	inter1, .-inter1
  45              		.section	.text.inter4,"ax",%progbits
  46              		.align	2
  47              		.global	inter4
  48              		.thumb
  49              		.thumb_func
  50              		.type	inter4, %function
  51              	inter4:
  52              	.LFB66:
  77:main.c        **** }
  78:main.c        **** 
  79:main.c        **** 
  80:main.c        **** CY_ISR(inter2) {
  81:main.c        ****     
  82:main.c        ****     sprintf(uartbuf, "true\n");
  83:main.c        ****     UART_PutString(uartbuf);
  84:main.c        ****     
  85:main.c        ****     newFrameFlag = 1;
  86:main.c        ****     /*
  87:main.c        ****     sprintf(uartbuf,  "New frame: %d\n,", newFrameFlag);
  88:main.c        ****     UART_PutString(uartbuf);
  89:main.c        ****     */
  90:main.c        **** }
  91:main.c        **** 
  92:main.c        **** /*
  93:main.c        **** CY_ISR(inter3) {
  94:main.c        ****     useCamFlag = 1;
  95:main.c        **** }
  96:main.c        **** */
  97:main.c        **** CY_ISR(inter4) {
  53              		.loc 1 97 0
  54              		.cfi_startproc
  55              		@ args = 0, pretend = 0, frame = 0
  56              		@ frame_needed = 0, uses_anonymous_args = 0
  57              		@ link register save eliminated.
  98:main.c        ****     blackFlag = 1;
  58              		.loc 1 98 0
  59 0000 0122     		movs	r2, #1
  60 0002 014B     		ldr	r3, .L5
  61 0004 5A60     		str	r2, [r3, #4]
  62 0006 7047     		bx	lr
  63              	.L6:
  64              		.align	2
  65              	.L5:
  66 0008 00000000 		.word	.LANCHOR0
  67              		.cfi_endproc
  68              	.LFE66:
  69              		.size	inter4, .-inter4
  70              		.section	.text.inter2,"ax",%progbits
  71              		.align	2
  72              		.global	inter2
  73              		.thumb
ARM GAS  C:\Users\Dhyan\AppData\Local\Temp\ccpI2LNf.s 			page 4


  74              		.thumb_func
  75              		.type	inter2, %function
  76              	inter2:
  77              	.LFB65:
  80:main.c        ****     
  78              		.loc 1 80 0
  79              		.cfi_startproc
  80              		@ args = 0, pretend = 0, frame = 0
  81              		@ frame_needed = 0, uses_anonymous_args = 0
  82 0000 08B5     		push	{r3, lr}
  83              		.cfi_def_cfa_offset 8
  84              		.cfi_offset 3, -8
  85              		.cfi_offset 14, -4
  82:main.c        ****     UART_PutString(uartbuf);
  86              		.loc 1 82 0
  87 0002 064B     		ldr	r3, .L9
  88 0004 064A     		ldr	r2, .L9+4
  89 0006 1068     		ldr	r0, [r2]	@ unaligned
  90 0008 1860     		str	r0, [r3]	@ unaligned
  91 000a 9288     		ldrh	r2, [r2, #4]	@ unaligned
  92 000c 9A80     		strh	r2, [r3, #4]	@ unaligned
  83:main.c        ****     
  93              		.loc 1 83 0
  94 000e 1846     		mov	r0, r3
  95 0010 FFF7FEFF 		bl	UART_PutString
  96              	.LVL0:
  85:main.c        ****     /*
  97              		.loc 1 85 0
  98 0014 0122     		movs	r2, #1
  99 0016 034B     		ldr	r3, .L9+8
 100 0018 9A60     		str	r2, [r3, #8]
 101 001a 08BD     		pop	{r3, pc}
 102              	.L10:
 103              		.align	2
 104              	.L9:
 105 001c 00000000 		.word	uartbuf
 106 0020 00000000 		.word	.LC0
 107 0024 00000000 		.word	.LANCHOR0
 108              		.cfi_endproc
 109              	.LFE65:
 110              		.size	inter2, .-inter2
 111              		.global	__aeabi_i2d
 112              		.global	__aeabi_ddiv
 113              		.global	__aeabi_dsub
 114              		.global	__aeabi_d2iz
 115              		.section	.text.main,"ax",%progbits
 116              		.align	2
 117              		.global	main
 118              		.thumb
 119              		.thumb_func
 120              		.type	main, %function
 121              	main:
 122              	.LFB67:
  99:main.c        **** }
 100:main.c        **** 
 101:main.c        **** int main(void)
 102:main.c        **** {
ARM GAS  C:\Users\Dhyan\AppData\Local\Temp\ccpI2LNf.s 			page 5


 123              		.loc 1 102 0
 124              		.cfi_startproc
 125              		@ args = 0, pretend = 0, frame = 16
 126              		@ frame_needed = 0, uses_anonymous_args = 0
 127 0000 30B5     		push	{r4, r5, lr}
 128              		.cfi_def_cfa_offset 12
 129              		.cfi_offset 4, -12
 130              		.cfi_offset 5, -8
 131              		.cfi_offset 14, -4
 132 0002 85B0     		sub	sp, sp, #20
 133              		.cfi_def_cfa_offset 32
 103:main.c        ****     CyGlobalIntEnable; /* Enable global interrupts. */
 134              		.loc 1 103 0
 135              		.syntax unified
 136              	@ 103 "main.c" 1
 137 0004 62B6     		CPSIE   i
 138              	@ 0 "" 2
 104:main.c        ****     char strbuf[16];
 105:main.c        ****     
 106:main.c        ****     /* Place your initialization/startup code here (e.g. MyInst_Start()) */
 107:main.c        ****     LCD_Start();
 139              		.loc 1 107 0
 140              		.thumb
 141              		.syntax unified
 142 0006 FFF7FEFF 		bl	LCD_Start
 143              	.LVL1:
 108:main.c        ****     HE_Interrupt_Start();
 144              		.loc 1 108 0
 145 000a FFF7FEFF 		bl	HE_Interrupt_Start
 146              	.LVL2:
 109:main.c        ****     HE_Interrupt_SetVector(inter1);
 147              		.loc 1 109 0
 148 000e 3E48     		ldr	r0, .L16
 149 0010 FFF7FEFF 		bl	HE_Interrupt_SetVector
 150              	.LVL3:
 110:main.c        ****     Timer_Start();
 151              		.loc 1 110 0
 152 0014 FFF7FEFF 		bl	Timer_Start
 153              	.LVL4:
 111:main.c        ****     UART_Start();
 154              		.loc 1 111 0
 155 0018 FFF7FEFF 		bl	UART_Start
 156              	.LVL5:
 112:main.c        ****     PWM_Start();
 157              		.loc 1 112 0
 158 001c FFF7FEFF 		bl	PWM_Start
 159              	.LVL6:
 113:main.c        ****     
 114:main.c        ****     VideoTimer_Start();
 160              		.loc 1 114 0
 161 0020 FFF7FEFF 		bl	VideoTimer_Start
 162              	.LVL7:
 115:main.c        ****     VideoTimer_Stop();
 163              		.loc 1 115 0
 164 0024 FFF7FEFF 		bl	VideoTimer_Stop
 165              	.LVL8:
 116:main.c        ****     Counter_Start();
ARM GAS  C:\Users\Dhyan\AppData\Local\Temp\ccpI2LNf.s 			page 6


 166              		.loc 1 116 0
 167 0028 FFF7FEFF 		bl	Counter_Start
 168              	.LVL9:
 117:main.c        ****     Counter_Stop();
 169              		.loc 1 117 0
 170 002c FFF7FEFF 		bl	Counter_Stop
 171              	.LVL10:
 118:main.c        ****     StartFrame_Start();
 172              		.loc 1 118 0
 173 0030 FFF7FEFF 		bl	StartFrame_Start
 174              	.LVL11:
 119:main.c        ****     StartFrame_SetVector(inter2);
 175              		.loc 1 119 0
 176 0034 3548     		ldr	r0, .L16+4
 177 0036 FFF7FEFF 		bl	StartFrame_SetVector
 178              	.LVL12:
 120:main.c        ****     /*
 121:main.c        ****     UseCamera_Start();
 122:main.c        ****     UseCamera_SetVector(inter3);
 123:main.c        ****     */
 124:main.c        ****     Black_Start();
 179              		.loc 1 124 0
 180 003a FFF7FEFF 		bl	Black_Start
 181              	.LVL13:
 125:main.c        ****     Black_SetVector(inter4);
 182              		.loc 1 125 0
 183 003e 3448     		ldr	r0, .L16+8
 184 0040 FFF7FEFF 		bl	Black_SetVector
 185              	.LVL14:
 126:main.c        ****     
 127:main.c        ****     /*
 128:main.c        ****     PWM_WriteCompare(200);
 129:main.c        ****     
 130:main.c        ****     sprintf(strbuf,"Optimal speed: %.0f,", setSpeed);
 131:main.c        ****     LCD_Position(0,0);
 132:main.c        ****     LCD_PrintString(strbuf);
 133:main.c        ****     */
 134:main.c        ****     
 135:main.c        ****     sprintf(uartbuf, "Bl loc:");
 186              		.loc 1 135 0
 187 0044 334A     		ldr	r2, .L16+12
 188 0046 344D     		ldr	r5, .L16+16
 189 0048 2B46     		mov	r3, r5
 190 004a 03CB     		ldmia	r3!, {r0, r1}
 191 004c 1060     		str	r0, [r2]	@ unaligned
 192 004e 5160     		str	r1, [r2, #4]	@ unaligned
 136:main.c        ****     sprintf(strbuf,  "Bl loc:");
 193              		.loc 1 136 0
 194 0050 8DE80300 		stmia	sp, {r0, r1}
 137:main.c        ****     UART_PutString(uartbuf);
 195              		.loc 1 137 0
 196 0054 1046     		mov	r0, r2
 197 0056 FFF7FEFF 		bl	UART_PutString
 198              	.LVL15:
 138:main.c        ****     LCD_Position(0, 0);
 199              		.loc 1 138 0
 200 005a 0021     		movs	r1, #0
ARM GAS  C:\Users\Dhyan\AppData\Local\Temp\ccpI2LNf.s 			page 7


 201 005c 0846     		mov	r0, r1
 202 005e FFF7FEFF 		bl	LCD_Position
 203              	.LVL16:
 139:main.c        ****     LCD_PrintString(strbuf);
 204              		.loc 1 139 0
 205 0062 6846     		mov	r0, sp
 206 0064 FFF7FEFF 		bl	LCD_PrintString
 207              	.LVL17:
 140:main.c        ****     
 141:main.c        ****     LPS = LPF * FPS; // lines per second
 208              		.loc 1 141 0
 209 0068 2C4B     		ldr	r3, .L16+20
 210 006a 1868     		ldr	r0, [r3]
 211 006c 5B68     		ldr	r3, [r3, #4]
 212 006e 03FB00F0 		mul	r0, r3, r0
 213 0072 2B4B     		ldr	r3, .L16+24
 214 0074 1860     		str	r0, [r3]
 142:main.c        ****     HFREQ = 1.0 / LPS;// hsync freq
 215              		.loc 1 142 0
 216 0076 FFF7FEFF 		bl	__aeabi_i2d
 217              	.LVL18:
 218 007a 0246     		mov	r2, r0
 219 007c 0B46     		mov	r3, r1
 220 007e 0020     		movs	r0, #0
 221 0080 2849     		ldr	r1, .L16+28
 222 0082 FFF7FEFF 		bl	__aeabi_ddiv
 223              	.LVL19:
 224 0086 284B     		ldr	r3, .L16+32
 225 0088 C3E90001 		strd	r0, [r3]
 226              	.LVL20:
 227              	.L13:
 143:main.c        ****     int halfLPF = LPF / 2 + 1;
 144:main.c        ****     int blackTime;
 145:main.c        ****     
 146:main.c        **** 
 147:main.c        ****     for(;;)
 148:main.c        ****     { 
 149:main.c        ****         // sprintf(strbuf, "Counter: %d\n,", Counter_ReadCounter());
 150:main.c        ****        
 151:main.c        ****         // LCD_PrintString(strbuf);
 152:main.c        ****         /*
 153:main.c        ****         sprintf(uartbuf,  "New frame: %d\n,", newFrameFlag);
 154:main.c        ****         UART_PutString(uartbuf);
 155:main.c        ****         */
 156:main.c        ****         
 157:main.c        ****         if (newFrameFlag == 1) {
 228              		.loc 1 157 0
 229 008c 274B     		ldr	r3, .L16+36
 230 008e 9B68     		ldr	r3, [r3, #8]
 231 0090 012B     		cmp	r3, #1
 232 0092 0FD1     		bne	.L12
 158:main.c        ****             Counter_Enable();
 233              		.loc 1 158 0
 234 0094 FFF7FEFF 		bl	Counter_Enable
 235              	.LVL21:
 159:main.c        ****             
 160:main.c        ****             sprintf(uartbuf,  "Counter: %d\n\n,", Counter_ReadCounter());
ARM GAS  C:\Users\Dhyan\AppData\Local\Temp\ccpI2LNf.s 			page 8


 236              		.loc 1 160 0
 237 0098 FFF7FEFF 		bl	Counter_ReadCounter
 238              	.LVL22:
 239 009c 1D4C     		ldr	r4, .L16+12
 240 009e 0246     		mov	r2, r0
 241 00a0 2349     		ldr	r1, .L16+40
 242 00a2 2046     		mov	r0, r4
 243 00a4 FFF7FEFF 		bl	sprintf
 244              	.LVL23:
 161:main.c        ****             UART_PutString(uartbuf);
 245              		.loc 1 161 0
 246 00a8 2046     		mov	r0, r4
 247 00aa FFF7FEFF 		bl	UART_PutString
 248              	.LVL24:
 162:main.c        ****             
 163:main.c        ****             newFrameFlag = 0;
 249              		.loc 1 163 0
 250 00ae 0022     		movs	r2, #0
 251 00b0 1E4B     		ldr	r3, .L16+36
 252 00b2 9A60     		str	r2, [r3, #8]
 253              	.L12:
 164:main.c        ****         }
 165:main.c        ****         if (blackFlag == 1) { // collect data
 254              		.loc 1 165 0
 255 00b4 1D4B     		ldr	r3, .L16+36
 256 00b6 5B68     		ldr	r3, [r3, #4]
 257 00b8 012B     		cmp	r3, #1
 258 00ba E7D1     		bne	.L13
 166:main.c        ****             blackTime = COUNTDOWN - VideoTimer_ReadCapture();
 259              		.loc 1 166 0
 260 00bc 174B     		ldr	r3, .L16+20
 261 00be D3E90245 		ldrd	r4, [r3, #8]
 262 00c2 FFF7FEFF 		bl	VideoTimer_ReadCapture
 263              	.LVL25:
 264 00c6 FFF7FEFF 		bl	__aeabi_i2d
 265              	.LVL26:
 266 00ca 0246     		mov	r2, r0
 267 00cc 0B46     		mov	r3, r1
 268 00ce 2046     		mov	r0, r4
 269 00d0 2946     		mov	r1, r5
 270 00d2 FFF7FEFF 		bl	__aeabi_dsub
 271              	.LVL27:
 272 00d6 FFF7FEFF 		bl	__aeabi_d2iz
 273              	.LVL28:
 274 00da 0446     		mov	r4, r0
 275              	.LVL29:
 167:main.c        ****             
 168:main.c        ****             sprintf(uartbuf, "Black pixel location: %d,", blackTime);
 276              		.loc 1 168 0
 277 00dc 0D4D     		ldr	r5, .L16+12
 278 00de 0246     		mov	r2, r0
 279 00e0 1449     		ldr	r1, .L16+44
 280 00e2 2846     		mov	r0, r5
 281              	.LVL30:
 282 00e4 FFF7FEFF 		bl	sprintf
 283              	.LVL31:
 169:main.c        ****             UART_PutString(uartbuf);
ARM GAS  C:\Users\Dhyan\AppData\Local\Temp\ccpI2LNf.s 			page 9


 284              		.loc 1 169 0
 285 00e8 2846     		mov	r0, r5
 286 00ea FFF7FEFF 		bl	UART_PutString
 287              	.LVL32:
 170:main.c        ****             sprintf(strbuf, "Location: %d,", blackTime);
 288              		.loc 1 170 0
 289 00ee 2246     		mov	r2, r4
 290 00f0 1149     		ldr	r1, .L16+48
 291 00f2 6846     		mov	r0, sp
 292 00f4 FFF7FEFF 		bl	sprintf
 293              	.LVL33:
 171:main.c        ****             LCD_PrintString(strbuf);
 294              		.loc 1 171 0
 295 00f8 6846     		mov	r0, sp
 296 00fa FFF7FEFF 		bl	LCD_PrintString
 297              	.LVL34:
 172:main.c        ****            
 173:main.c        ****             VideoTimer_Stop();
 298              		.loc 1 173 0
 299 00fe FFF7FEFF 		bl	VideoTimer_Stop
 300              	.LVL35:
 174:main.c        ****             Counter_Stop();
 301              		.loc 1 174 0
 302 0102 FFF7FEFF 		bl	Counter_Stop
 303              	.LVL36:
 304 0106 C1E7     		b	.L13
 305              	.L17:
 306              		.align	2
 307              	.L16:
 308 0108 00000000 		.word	inter1
 309 010c 00000000 		.word	inter2
 310 0110 00000000 		.word	inter4
 311 0114 00000000 		.word	uartbuf
 312 0118 08000000 		.word	.LC1
 313 011c 00000000 		.word	.LANCHOR1
 314 0120 00000000 		.word	LPS
 315 0124 0000F03F 		.word	1072693248
 316 0128 00000000 		.word	HFREQ
 317 012c 00000000 		.word	.LANCHOR0
 318 0130 10000000 		.word	.LC2
 319 0134 20000000 		.word	.LC3
 320 0138 3C000000 		.word	.LC4
 321              		.cfi_endproc
 322              	.LFE67:
 323              		.size	main, .-main
 324              		.global	XSHSync
 325              		.comm	firstPixelTime,8,8
 326              		.global	blackFlag
 327              		.global	newFrameFlag
 328              		.global	hallFlag
 329              		.global	OEFREQ
 330              		.global	VFREQ
 331              		.comm	HFREQ,8,8
 332              		.comm	LPS,4,4
 333              		.global	LPF
 334              		.global	FPS
 335              		.global	PICHEIGHT
ARM GAS  C:\Users\Dhyan\AppData\Local\Temp\ccpI2LNf.s 			page 10


 336              		.global	PICWIDTH
 337              		.comm	lineTime,8,8
 338              		.comm	dutyCycle,8,8
 339              		.comm	avgError,8,8
 340              		.global	sum
 341              		.comm	errorDiff,8,8
 342              		.global	oldError
 343              		.comm	error,8,8
 344              		.comm	speed,8,8
 345              		.comm	eTime,8,8
 346              		.comm	uartbuf,128,4
 347              		.comm	strbuf,16,4
 348              		.global	KD
 349              		.global	KI
 350              		.global	KP
 351              		.global	setSpeed
 352              		.global	currentTime
 353              		.global	oldTime
 354              		.global	TICKCUTOFF
 355              		.global	OFF
 356              		.global	ON
 357              		.global	COUNTDOWN
 358              		.global	FREQ
 359              		.global	LENGTH
 360              		.global	PI
 361              		.global	time
 362              		.global	ticks
 363              		.data
 364              		.align	3
 365              		.set	.LANCHOR1,. + 0
 366              		.type	LPF, %object
 367              		.size	LPF, 4
 368              	LPF:
 369 0000 0D020000 		.word	525
 370              		.type	FPS, %object
 371              		.size	FPS, 4
 372              	FPS:
 373 0004 1E000000 		.word	30
 374              		.type	COUNTDOWN, %object
 375              		.size	COUNTDOWN, 8
 376              	COUNTDOWN:
 377 0008 00000000 		.word	0
 378 000c 0000F040 		.word	1089470464
 379              		.type	XSHSync, %object
 380              		.size	XSHSync, 4
 381              	XSHSync:
 382 0010 10000000 		.word	16
 383              		.type	OEFREQ, %object
 384              		.size	OEFREQ, 4
 385              	OEFREQ:
 386 0014 1E000000 		.word	30
 387              		.type	VFREQ, %object
 388              		.size	VFREQ, 4
 389              	VFREQ:
 390 0018 3C000000 		.word	60
 391              		.type	PICHEIGHT, %object
 392              		.size	PICHEIGHT, 4
ARM GAS  C:\Users\Dhyan\AppData\Local\Temp\ccpI2LNf.s 			page 11


 393              	PICHEIGHT:
 394 001c F0000000 		.word	240
 395              		.type	PICWIDTH, %object
 396              		.size	PICWIDTH, 4
 397              	PICWIDTH:
 398 0020 40010000 		.word	320
 399 0024 00000000 		.space	4
 400              		.type	oldError, %object
 401              		.size	oldError, 8
 402              	oldError:
 403 0028 00000000 		.word	0
 404 002c 00001040 		.word	1074790400
 405              		.type	KD, %object
 406              		.size	KD, 8
 407              	KD:
 408 0030 00000000 		.word	0
 409 0034 00002E40 		.word	1076756480
 410              		.type	KI, %object
 411              		.size	KI, 8
 412              	KI:
 413 0038 00000000 		.word	0
 414 003c 00001440 		.word	1075052544
 415              		.type	KP, %object
 416              		.size	KP, 8
 417              	KP:
 418 0040 00000000 		.word	0
 419 0044 00807140 		.word	1081180160
 420              		.type	setSpeed, %object
 421              		.size	setSpeed, 8
 422              	setSpeed:
 423 0048 00000000 		.word	0
 424 004c 00001040 		.word	1074790400
 425              		.type	TICKCUTOFF, %object
 426              		.size	TICKCUTOFF, 4
 427              	TICKCUTOFF:
 428 0050 52010000 		.word	338
 429              		.type	ON, %object
 430              		.size	ON, 4
 431              	ON:
 432 0054 FF000000 		.word	255
 433              		.type	FREQ, %object
 434              		.size	FREQ, 8
 435              	FREQ:
 436 0058 00000000 		.word	0
 437 005c 0088C340 		.word	1086556160
 438              		.type	LENGTH, %object
 439              		.size	LENGTH, 8
 440              	LENGTH:
 441 0060 13F241CF 		.word	-817761773
 442 0064 66D5BF3F 		.word	1069536614
 443              		.type	PI, %object
 444              		.size	PI, 8
 445              	PI:
 446 0068 7A008BFC 		.word	-57999238
 447 006c FA210940 		.word	1074340346
 448              		.section	.rodata.str1.4,"aMS",%progbits,1
 449              		.align	2
ARM GAS  C:\Users\Dhyan\AppData\Local\Temp\ccpI2LNf.s 			page 12


 450              	.LC0:
 451 0000 74727565 		.ascii	"true\012\000"
 451      0A00
 452 0006 0000     		.space	2
 453              	.LC1:
 454 0008 426C206C 		.ascii	"Bl loc:\000"
 454      6F633A00 
 455              	.LC2:
 456 0010 436F756E 		.ascii	"Counter: %d\012\012,\000"
 456      7465723A 
 456      2025640A 
 456      0A2C00
 457 001f 00       		.space	1
 458              	.LC3:
 459 0020 426C6163 		.ascii	"Black pixel location: %d,\000"
 459      6B207069 
 459      78656C20 
 459      6C6F6361 
 459      74696F6E 
 460 003a 0000     		.space	2
 461              	.LC4:
 462 003c 4C6F6361 		.ascii	"Location: %d,\000"
 462      74696F6E 
 462      3A202564 
 462      2C00
 463              		.bss
 464              		.align	3
 465              		.set	.LANCHOR0,. + 0
 466              		.type	hallFlag, %object
 467              		.size	hallFlag, 4
 468              	hallFlag:
 469 0000 00000000 		.space	4
 470              		.type	blackFlag, %object
 471              		.size	blackFlag, 4
 472              	blackFlag:
 473 0004 00000000 		.space	4
 474              		.type	newFrameFlag, %object
 475              		.size	newFrameFlag, 4
 476              	newFrameFlag:
 477 0008 00000000 		.space	4
 478 000c 00000000 		.space	4
 479              		.type	sum, %object
 480              		.size	sum, 8
 481              	sum:
 482 0010 00000000 		.space	8
 482      00000000 
 483              		.type	currentTime, %object
 484              		.size	currentTime, 4
 485              	currentTime:
 486 0018 00000000 		.space	4
 487              		.type	oldTime, %object
 488              		.size	oldTime, 4
 489              	oldTime:
 490 001c 00000000 		.space	4
 491              		.type	OFF, %object
 492              		.size	OFF, 4
 493              	OFF:
ARM GAS  C:\Users\Dhyan\AppData\Local\Temp\ccpI2LNf.s 			page 13


 494 0020 00000000 		.space	4
 495 0024 00000000 		.space	4
 496              		.type	time, %object
 497              		.size	time, 8
 498              	time:
 499 0028 00000000 		.space	8
 499      00000000 
 500              		.type	ticks, %object
 501              		.size	ticks, 4
 502              	ticks:
 503 0030 00000000 		.space	4
 504              		.text
 505              	.Letext0:
 506              		.file 2 "c:\\program files (x86)\\cypress\\psoc creator\\4.2\\psoc creator\\import\\gnu\\arm\\5.4.
 507              		.file 3 "c:\\program files (x86)\\cypress\\psoc creator\\4.2\\psoc creator\\import\\gnu\\arm\\5.4.
 508              		.file 4 "Generated_Source\\PSoC5/core_cm3.h"
 509              		.file 5 "Generated_Source\\PSoC5/UART.h"
 510              		.file 6 "Generated_Source\\PSoC5/LCD.h"
 511              		.file 7 "Generated_Source\\PSoC5/HE_Interrupt.h"
 512              		.file 8 "Generated_Source\\PSoC5/Timer.h"
 513              		.file 9 "Generated_Source\\PSoC5/PWM.h"
 514              		.file 10 "Generated_Source\\PSoC5/VideoTimer.h"
 515              		.file 11 "Generated_Source\\PSoC5/Counter.h"
 516              		.file 12 "Generated_Source\\PSoC5/StartFrame.h"
 517              		.file 13 "Generated_Source\\PSoC5/Black.h"
 518              		.file 14 "c:\\program files (x86)\\cypress\\psoc creator\\4.2\\psoc creator\\import\\gnu\\arm\\5.4