ARM GAS  C:\Users\nkhedkar\AppData\Local\Temp\ccbIg4SS.s 			page 1


   1              		.syntax unified
   2              		.cpu cortex-m3
   3              		.fpu softvfp
   4              		.eabi_attribute 20, 1
   5              		.eabi_attribute 21, 1
   6              		.eabi_attribute 23, 3
   7              		.eabi_attribute 24, 1
   8              		.eabi_attribute 25, 1
   9              		.eabi_attribute 26, 1
  10              		.eabi_attribute 30, 1
  11              		.eabi_attribute 34, 1
  12              		.eabi_attribute 18, 4
  13              		.thumb
  14              		.syntax unified
  15              		.file	"OddEvenTimer.c"
  16              		.text
  17              	.Ltext0:
  18              		.cfi_sections	.debug_frame
  19              		.section	.text.OddEvenTimer_Enable,"ax",%progbits
  20              		.align	2
  21              		.global	OddEvenTimer_Enable
  22              		.thumb
  23              		.thumb_func
  24              		.type	OddEvenTimer_Enable, %function
  25              	OddEvenTimer_Enable:
  26              	.LFB1:
  27              		.file 1 "Generated_Source\\PSoC5\\OddEvenTimer.c"
   1:Generated_Source\PSoC5/OddEvenTimer.c **** /*******************************************************************************
   2:Generated_Source\PSoC5/OddEvenTimer.c **** * File Name: OddEvenTimer.c
   3:Generated_Source\PSoC5/OddEvenTimer.c **** * Version 2.80
   4:Generated_Source\PSoC5/OddEvenTimer.c **** *
   5:Generated_Source\PSoC5/OddEvenTimer.c **** * Description:
   6:Generated_Source\PSoC5/OddEvenTimer.c **** *  The Timer component consists of a 8, 16, 24 or 32-bit timer with
   7:Generated_Source\PSoC5/OddEvenTimer.c **** *  a selectable period between 2 and 2^Width - 1.  The timer may free run
   8:Generated_Source\PSoC5/OddEvenTimer.c **** *  or be used as a capture timer as well.  The capture can be initiated
   9:Generated_Source\PSoC5/OddEvenTimer.c **** *  by a positive or negative edge signal as well as via software.
  10:Generated_Source\PSoC5/OddEvenTimer.c **** *  A trigger input can be programmed to enable the timer on rising edge
  11:Generated_Source\PSoC5/OddEvenTimer.c **** *  falling edge, either edge or continous run.
  12:Generated_Source\PSoC5/OddEvenTimer.c **** *  Interrupts may be generated due to a terminal count condition
  13:Generated_Source\PSoC5/OddEvenTimer.c **** *  or a capture event.
  14:Generated_Source\PSoC5/OddEvenTimer.c **** *
  15:Generated_Source\PSoC5/OddEvenTimer.c **** * Note:
  16:Generated_Source\PSoC5/OddEvenTimer.c **** *
  17:Generated_Source\PSoC5/OddEvenTimer.c **** ********************************************************************************
  18:Generated_Source\PSoC5/OddEvenTimer.c **** * Copyright 2008-2017, Cypress Semiconductor Corporation.  All rights reserved.
  19:Generated_Source\PSoC5/OddEvenTimer.c **** * You may use this file only in accordance with the license, terms, conditions,
  20:Generated_Source\PSoC5/OddEvenTimer.c **** * disclaimers, and limitations in the end user license agreement accompanying
  21:Generated_Source\PSoC5/OddEvenTimer.c **** * the software package with which this file was provided.
  22:Generated_Source\PSoC5/OddEvenTimer.c **** ********************************************************************************/
  23:Generated_Source\PSoC5/OddEvenTimer.c **** 
  24:Generated_Source\PSoC5/OddEvenTimer.c **** #include "OddEvenTimer.h"
  25:Generated_Source\PSoC5/OddEvenTimer.c **** 
  26:Generated_Source\PSoC5/OddEvenTimer.c **** uint8 OddEvenTimer_initVar = 0u;
  27:Generated_Source\PSoC5/OddEvenTimer.c **** 
  28:Generated_Source\PSoC5/OddEvenTimer.c **** 
  29:Generated_Source\PSoC5/OddEvenTimer.c **** /*******************************************************************************
  30:Generated_Source\PSoC5/OddEvenTimer.c **** * Function Name: OddEvenTimer_Init
ARM GAS  C:\Users\nkhedkar\AppData\Local\Temp\ccbIg4SS.s 			page 2


  31:Generated_Source\PSoC5/OddEvenTimer.c **** ********************************************************************************
  32:Generated_Source\PSoC5/OddEvenTimer.c **** *
  33:Generated_Source\PSoC5/OddEvenTimer.c **** * Summary:
  34:Generated_Source\PSoC5/OddEvenTimer.c **** *  Initialize to the schematic state
  35:Generated_Source\PSoC5/OddEvenTimer.c **** *
  36:Generated_Source\PSoC5/OddEvenTimer.c **** * Parameters:
  37:Generated_Source\PSoC5/OddEvenTimer.c **** *  void
  38:Generated_Source\PSoC5/OddEvenTimer.c **** *
  39:Generated_Source\PSoC5/OddEvenTimer.c **** * Return:
  40:Generated_Source\PSoC5/OddEvenTimer.c **** *  void
  41:Generated_Source\PSoC5/OddEvenTimer.c **** *
  42:Generated_Source\PSoC5/OddEvenTimer.c **** *******************************************************************************/
  43:Generated_Source\PSoC5/OddEvenTimer.c **** void OddEvenTimer_Init(void) 
  44:Generated_Source\PSoC5/OddEvenTimer.c **** {
  45:Generated_Source\PSoC5/OddEvenTimer.c ****     #if(!OddEvenTimer_UsingFixedFunction)
  46:Generated_Source\PSoC5/OddEvenTimer.c ****             /* Interrupt State Backup for Critical Region*/
  47:Generated_Source\PSoC5/OddEvenTimer.c ****             uint8 OddEvenTimer_interruptState;
  48:Generated_Source\PSoC5/OddEvenTimer.c ****     #endif /* Interrupt state back up for Fixed Function only */
  49:Generated_Source\PSoC5/OddEvenTimer.c **** 
  50:Generated_Source\PSoC5/OddEvenTimer.c ****     #if (OddEvenTimer_UsingFixedFunction)
  51:Generated_Source\PSoC5/OddEvenTimer.c ****         /* Clear all bits but the enable bit (if it's already set) for Timer operation */
  52:Generated_Source\PSoC5/OddEvenTimer.c ****         OddEvenTimer_CONTROL &= OddEvenTimer_CTRL_ENABLE;
  53:Generated_Source\PSoC5/OddEvenTimer.c **** 
  54:Generated_Source\PSoC5/OddEvenTimer.c ****         /* Clear the mode bits for continuous run mode */
  55:Generated_Source\PSoC5/OddEvenTimer.c ****         #if (CY_PSOC5A)
  56:Generated_Source\PSoC5/OddEvenTimer.c ****             OddEvenTimer_CONTROL2 &= ((uint8)(~OddEvenTimer_CTRL_MODE_MASK));
  57:Generated_Source\PSoC5/OddEvenTimer.c ****         #endif /* Clear bits in CONTROL2 only in PSOC5A */
  58:Generated_Source\PSoC5/OddEvenTimer.c **** 
  59:Generated_Source\PSoC5/OddEvenTimer.c ****         #if (CY_PSOC3 || CY_PSOC5LP)
  60:Generated_Source\PSoC5/OddEvenTimer.c ****             OddEvenTimer_CONTROL3 &= ((uint8)(~OddEvenTimer_CTRL_MODE_MASK));
  61:Generated_Source\PSoC5/OddEvenTimer.c ****         #endif /* CONTROL3 register exists only in PSoC3 OR PSoC5LP */
  62:Generated_Source\PSoC5/OddEvenTimer.c **** 
  63:Generated_Source\PSoC5/OddEvenTimer.c ****         /* Check if One Shot mode is enabled i.e. RunMode !=0*/
  64:Generated_Source\PSoC5/OddEvenTimer.c ****         #if (OddEvenTimer_RunModeUsed != 0x0u)
  65:Generated_Source\PSoC5/OddEvenTimer.c ****             /* Set 3rd bit of Control register to enable one shot mode */
  66:Generated_Source\PSoC5/OddEvenTimer.c ****             OddEvenTimer_CONTROL |= 0x04u;
  67:Generated_Source\PSoC5/OddEvenTimer.c ****         #endif /* One Shot enabled only when RunModeUsed is not Continuous*/
  68:Generated_Source\PSoC5/OddEvenTimer.c **** 
  69:Generated_Source\PSoC5/OddEvenTimer.c ****         #if (OddEvenTimer_RunModeUsed == 2)
  70:Generated_Source\PSoC5/OddEvenTimer.c ****             #if (CY_PSOC5A)
  71:Generated_Source\PSoC5/OddEvenTimer.c ****                 /* Set last 2 bits of control2 register if one shot(halt on
  72:Generated_Source\PSoC5/OddEvenTimer.c ****                 interrupt) is enabled*/
  73:Generated_Source\PSoC5/OddEvenTimer.c ****                 OddEvenTimer_CONTROL2 |= 0x03u;
  74:Generated_Source\PSoC5/OddEvenTimer.c ****             #endif /* Set One-Shot Halt on Interrupt bit in CONTROL2 for PSoC5A */
  75:Generated_Source\PSoC5/OddEvenTimer.c **** 
  76:Generated_Source\PSoC5/OddEvenTimer.c ****             #if (CY_PSOC3 || CY_PSOC5LP)
  77:Generated_Source\PSoC5/OddEvenTimer.c ****                 /* Set last 2 bits of control3 register if one shot(halt on
  78:Generated_Source\PSoC5/OddEvenTimer.c ****                 interrupt) is enabled*/
  79:Generated_Source\PSoC5/OddEvenTimer.c ****                 OddEvenTimer_CONTROL3 |= 0x03u;
  80:Generated_Source\PSoC5/OddEvenTimer.c ****             #endif /* Set One-Shot Halt on Interrupt bit in CONTROL3 for PSoC3 or PSoC5LP */
  81:Generated_Source\PSoC5/OddEvenTimer.c **** 
  82:Generated_Source\PSoC5/OddEvenTimer.c ****         #endif /* Remove section if One Shot Halt on Interrupt is not enabled */
  83:Generated_Source\PSoC5/OddEvenTimer.c **** 
  84:Generated_Source\PSoC5/OddEvenTimer.c ****         #if (OddEvenTimer_UsingHWEnable != 0)
  85:Generated_Source\PSoC5/OddEvenTimer.c ****             #if (CY_PSOC5A)
  86:Generated_Source\PSoC5/OddEvenTimer.c ****                 /* Set the default Run Mode of the Timer to Continuous */
  87:Generated_Source\PSoC5/OddEvenTimer.c ****                 OddEvenTimer_CONTROL2 |= OddEvenTimer_CTRL_MODE_PULSEWIDTH;
ARM GAS  C:\Users\nkhedkar\AppData\Local\Temp\ccbIg4SS.s 			page 3


  88:Generated_Source\PSoC5/OddEvenTimer.c ****             #endif /* Set Continuous Run Mode in CONTROL2 for PSoC5A */
  89:Generated_Source\PSoC5/OddEvenTimer.c **** 
  90:Generated_Source\PSoC5/OddEvenTimer.c ****             #if (CY_PSOC3 || CY_PSOC5LP)
  91:Generated_Source\PSoC5/OddEvenTimer.c ****                 /* Clear and Set ROD and COD bits of CFG2 register */
  92:Generated_Source\PSoC5/OddEvenTimer.c ****                 OddEvenTimer_CONTROL3 &= ((uint8)(~OddEvenTimer_CTRL_RCOD_MASK));
  93:Generated_Source\PSoC5/OddEvenTimer.c ****                 OddEvenTimer_CONTROL3 |= OddEvenTimer_CTRL_RCOD;
  94:Generated_Source\PSoC5/OddEvenTimer.c **** 
  95:Generated_Source\PSoC5/OddEvenTimer.c ****                 /* Clear and Enable the HW enable bit in CFG2 register */
  96:Generated_Source\PSoC5/OddEvenTimer.c ****                 OddEvenTimer_CONTROL3 &= ((uint8)(~OddEvenTimer_CTRL_ENBL_MASK));
  97:Generated_Source\PSoC5/OddEvenTimer.c ****                 OddEvenTimer_CONTROL3 |= OddEvenTimer_CTRL_ENBL;
  98:Generated_Source\PSoC5/OddEvenTimer.c **** 
  99:Generated_Source\PSoC5/OddEvenTimer.c ****                 /* Set the default Run Mode of the Timer to Continuous */
 100:Generated_Source\PSoC5/OddEvenTimer.c ****                 OddEvenTimer_CONTROL3 |= OddEvenTimer_CTRL_MODE_CONTINUOUS;
 101:Generated_Source\PSoC5/OddEvenTimer.c ****             #endif /* Set Continuous Run Mode in CONTROL3 for PSoC3ES3 or PSoC5A */
 102:Generated_Source\PSoC5/OddEvenTimer.c **** 
 103:Generated_Source\PSoC5/OddEvenTimer.c ****         #endif /* Configure Run Mode with hardware enable */
 104:Generated_Source\PSoC5/OddEvenTimer.c **** 
 105:Generated_Source\PSoC5/OddEvenTimer.c ****         /* Clear and Set SYNCTC and SYNCCMP bits of RT1 register */
 106:Generated_Source\PSoC5/OddEvenTimer.c ****         OddEvenTimer_RT1 &= ((uint8)(~OddEvenTimer_RT1_MASK));
 107:Generated_Source\PSoC5/OddEvenTimer.c ****         OddEvenTimer_RT1 |= OddEvenTimer_SYNC;
 108:Generated_Source\PSoC5/OddEvenTimer.c **** 
 109:Generated_Source\PSoC5/OddEvenTimer.c ****         /*Enable DSI Sync all all inputs of the Timer*/
 110:Generated_Source\PSoC5/OddEvenTimer.c ****         OddEvenTimer_RT1 &= ((uint8)(~OddEvenTimer_SYNCDSI_MASK));
 111:Generated_Source\PSoC5/OddEvenTimer.c ****         OddEvenTimer_RT1 |= OddEvenTimer_SYNCDSI_EN;
 112:Generated_Source\PSoC5/OddEvenTimer.c **** 
 113:Generated_Source\PSoC5/OddEvenTimer.c ****         /* Set the IRQ to use the status register interrupts */
 114:Generated_Source\PSoC5/OddEvenTimer.c ****         OddEvenTimer_CONTROL2 |= OddEvenTimer_CTRL2_IRQ_SEL;
 115:Generated_Source\PSoC5/OddEvenTimer.c ****     #endif /* Configuring registers of fixed function implementation */
 116:Generated_Source\PSoC5/OddEvenTimer.c **** 
 117:Generated_Source\PSoC5/OddEvenTimer.c ****     /* Set Initial values from Configuration */
 118:Generated_Source\PSoC5/OddEvenTimer.c ****     OddEvenTimer_WritePeriod(OddEvenTimer_INIT_PERIOD);
 119:Generated_Source\PSoC5/OddEvenTimer.c ****     OddEvenTimer_WriteCounter(OddEvenTimer_INIT_PERIOD);
 120:Generated_Source\PSoC5/OddEvenTimer.c **** 
 121:Generated_Source\PSoC5/OddEvenTimer.c ****     #if (OddEvenTimer_UsingHWCaptureCounter)/* Capture counter is enabled */
 122:Generated_Source\PSoC5/OddEvenTimer.c ****         OddEvenTimer_CAPTURE_COUNT_CTRL |= OddEvenTimer_CNTR_ENABLE;
 123:Generated_Source\PSoC5/OddEvenTimer.c ****         OddEvenTimer_SetCaptureCount(OddEvenTimer_INIT_CAPTURE_COUNT);
 124:Generated_Source\PSoC5/OddEvenTimer.c ****     #endif /* Configure capture counter value */
 125:Generated_Source\PSoC5/OddEvenTimer.c **** 
 126:Generated_Source\PSoC5/OddEvenTimer.c ****     #if (!OddEvenTimer_UsingFixedFunction)
 127:Generated_Source\PSoC5/OddEvenTimer.c ****         #if (OddEvenTimer_SoftwareCaptureMode)
 128:Generated_Source\PSoC5/OddEvenTimer.c ****             OddEvenTimer_SetCaptureMode(OddEvenTimer_INIT_CAPTURE_MODE);
 129:Generated_Source\PSoC5/OddEvenTimer.c ****         #endif /* Set Capture Mode for UDB implementation if capture mode is software controlled */
 130:Generated_Source\PSoC5/OddEvenTimer.c **** 
 131:Generated_Source\PSoC5/OddEvenTimer.c ****         #if (OddEvenTimer_SoftwareTriggerMode)
 132:Generated_Source\PSoC5/OddEvenTimer.c ****             #if (!OddEvenTimer_UDB_CONTROL_REG_REMOVED)
 133:Generated_Source\PSoC5/OddEvenTimer.c ****                 if (0u == (OddEvenTimer_CONTROL & OddEvenTimer__B_TIMER__TM_SOFTWARE))
 134:Generated_Source\PSoC5/OddEvenTimer.c ****                 {
 135:Generated_Source\PSoC5/OddEvenTimer.c ****                     OddEvenTimer_SetTriggerMode(OddEvenTimer_INIT_TRIGGER_MODE);
 136:Generated_Source\PSoC5/OddEvenTimer.c ****                 }
 137:Generated_Source\PSoC5/OddEvenTimer.c ****             #endif /* (!OddEvenTimer_UDB_CONTROL_REG_REMOVED) */
 138:Generated_Source\PSoC5/OddEvenTimer.c ****         #endif /* Set trigger mode for UDB Implementation if trigger mode is software controlled */
 139:Generated_Source\PSoC5/OddEvenTimer.c **** 
 140:Generated_Source\PSoC5/OddEvenTimer.c ****         /* CyEnterCriticalRegion and CyExitCriticalRegion are used to mark following region critica
 141:Generated_Source\PSoC5/OddEvenTimer.c ****         /* Enter Critical Region*/
 142:Generated_Source\PSoC5/OddEvenTimer.c ****         OddEvenTimer_interruptState = CyEnterCriticalSection();
 143:Generated_Source\PSoC5/OddEvenTimer.c **** 
 144:Generated_Source\PSoC5/OddEvenTimer.c ****         /* Use the interrupt output of the status register for IRQ output */
ARM GAS  C:\Users\nkhedkar\AppData\Local\Temp\ccbIg4SS.s 			page 4


 145:Generated_Source\PSoC5/OddEvenTimer.c ****         OddEvenTimer_STATUS_AUX_CTRL |= OddEvenTimer_STATUS_ACTL_INT_EN_MASK;
 146:Generated_Source\PSoC5/OddEvenTimer.c **** 
 147:Generated_Source\PSoC5/OddEvenTimer.c ****         /* Exit Critical Region*/
 148:Generated_Source\PSoC5/OddEvenTimer.c ****         CyExitCriticalSection(OddEvenTimer_interruptState);
 149:Generated_Source\PSoC5/OddEvenTimer.c **** 
 150:Generated_Source\PSoC5/OddEvenTimer.c ****         #if (OddEvenTimer_EnableTriggerMode)
 151:Generated_Source\PSoC5/OddEvenTimer.c ****             OddEvenTimer_EnableTrigger();
 152:Generated_Source\PSoC5/OddEvenTimer.c ****         #endif /* Set Trigger enable bit for UDB implementation in the control register*/
 153:Generated_Source\PSoC5/OddEvenTimer.c **** 		
 154:Generated_Source\PSoC5/OddEvenTimer.c **** 		
 155:Generated_Source\PSoC5/OddEvenTimer.c ****         #if (OddEvenTimer_InterruptOnCaptureCount && !OddEvenTimer_UDB_CONTROL_REG_REMOVED)
 156:Generated_Source\PSoC5/OddEvenTimer.c ****             OddEvenTimer_SetInterruptCount(OddEvenTimer_INIT_INT_CAPTURE_COUNT);
 157:Generated_Source\PSoC5/OddEvenTimer.c ****         #endif /* Set interrupt count in UDB implementation if interrupt count feature is checked.*
 158:Generated_Source\PSoC5/OddEvenTimer.c **** 
 159:Generated_Source\PSoC5/OddEvenTimer.c ****         OddEvenTimer_ClearFIFO();
 160:Generated_Source\PSoC5/OddEvenTimer.c ****     #endif /* Configure additional features of UDB implementation */
 161:Generated_Source\PSoC5/OddEvenTimer.c **** 
 162:Generated_Source\PSoC5/OddEvenTimer.c ****     OddEvenTimer_SetInterruptMode(OddEvenTimer_INIT_INTERRUPT_MODE);
 163:Generated_Source\PSoC5/OddEvenTimer.c **** }
 164:Generated_Source\PSoC5/OddEvenTimer.c **** 
 165:Generated_Source\PSoC5/OddEvenTimer.c **** 
 166:Generated_Source\PSoC5/OddEvenTimer.c **** /*******************************************************************************
 167:Generated_Source\PSoC5/OddEvenTimer.c **** * Function Name: OddEvenTimer_Enable
 168:Generated_Source\PSoC5/OddEvenTimer.c **** ********************************************************************************
 169:Generated_Source\PSoC5/OddEvenTimer.c **** *
 170:Generated_Source\PSoC5/OddEvenTimer.c **** * Summary:
 171:Generated_Source\PSoC5/OddEvenTimer.c **** *  Enable the Timer
 172:Generated_Source\PSoC5/OddEvenTimer.c **** *
 173:Generated_Source\PSoC5/OddEvenTimer.c **** * Parameters:
 174:Generated_Source\PSoC5/OddEvenTimer.c **** *  void
 175:Generated_Source\PSoC5/OddEvenTimer.c **** *
 176:Generated_Source\PSoC5/OddEvenTimer.c **** * Return:
 177:Generated_Source\PSoC5/OddEvenTimer.c **** *  void
 178:Generated_Source\PSoC5/OddEvenTimer.c **** *
 179:Generated_Source\PSoC5/OddEvenTimer.c **** *******************************************************************************/
 180:Generated_Source\PSoC5/OddEvenTimer.c **** void OddEvenTimer_Enable(void) 
 181:Generated_Source\PSoC5/OddEvenTimer.c **** {
  28              		.loc 1 181 0
  29              		.cfi_startproc
  30              		@ args = 0, pretend = 0, frame = 0
  31              		@ frame_needed = 0, uses_anonymous_args = 0
  32              		@ link register save eliminated.
 182:Generated_Source\PSoC5/OddEvenTimer.c ****     /* Globally Enable the Fixed Function Block chosen */
 183:Generated_Source\PSoC5/OddEvenTimer.c ****     #if (OddEvenTimer_UsingFixedFunction)
 184:Generated_Source\PSoC5/OddEvenTimer.c ****         OddEvenTimer_GLOBAL_ENABLE |= OddEvenTimer_BLOCK_EN_MASK;
 185:Generated_Source\PSoC5/OddEvenTimer.c ****         OddEvenTimer_GLOBAL_STBY_ENABLE |= OddEvenTimer_BLOCK_STBY_EN_MASK;
 186:Generated_Source\PSoC5/OddEvenTimer.c ****     #endif /* Set Enable bit for enabling Fixed function timer*/
 187:Generated_Source\PSoC5/OddEvenTimer.c **** 
 188:Generated_Source\PSoC5/OddEvenTimer.c ****     /* Remove assignment if control register is removed */
 189:Generated_Source\PSoC5/OddEvenTimer.c ****     #if (!OddEvenTimer_UDB_CONTROL_REG_REMOVED || OddEvenTimer_UsingFixedFunction)
 190:Generated_Source\PSoC5/OddEvenTimer.c ****         OddEvenTimer_CONTROL |= OddEvenTimer_CTRL_ENABLE;
  33              		.loc 1 190 0
  34 0000 024A     		ldr	r2, .L2
  35 0002 1378     		ldrb	r3, [r2]	@ zero_extendqisi2
  36 0004 43F08003 		orr	r3, r3, #128
  37 0008 1370     		strb	r3, [r2]
  38 000a 7047     		bx	lr
ARM GAS  C:\Users\nkhedkar\AppData\Local\Temp\ccbIg4SS.s 			page 5


  39              	.L3:
  40              		.align	2
  41              	.L2:
  42 000c 78650040 		.word	1073767800
  43              		.cfi_endproc
  44              	.LFE1:
  45              		.size	OddEvenTimer_Enable, .-OddEvenTimer_Enable
  46              		.section	.text.OddEvenTimer_Stop,"ax",%progbits
  47              		.align	2
  48              		.global	OddEvenTimer_Stop
  49              		.thumb
  50              		.thumb_func
  51              		.type	OddEvenTimer_Stop, %function
  52              	OddEvenTimer_Stop:
  53              	.LFB3:
 191:Generated_Source\PSoC5/OddEvenTimer.c ****     #endif /* Remove assignment if control register is removed */
 192:Generated_Source\PSoC5/OddEvenTimer.c **** }
 193:Generated_Source\PSoC5/OddEvenTimer.c **** 
 194:Generated_Source\PSoC5/OddEvenTimer.c **** 
 195:Generated_Source\PSoC5/OddEvenTimer.c **** /*******************************************************************************
 196:Generated_Source\PSoC5/OddEvenTimer.c **** * Function Name: OddEvenTimer_Start
 197:Generated_Source\PSoC5/OddEvenTimer.c **** ********************************************************************************
 198:Generated_Source\PSoC5/OddEvenTimer.c **** *
 199:Generated_Source\PSoC5/OddEvenTimer.c **** * Summary:
 200:Generated_Source\PSoC5/OddEvenTimer.c **** *  The start function initializes the timer with the default values, the
 201:Generated_Source\PSoC5/OddEvenTimer.c **** *  enables the timerto begin counting.  It does not enable interrupts,
 202:Generated_Source\PSoC5/OddEvenTimer.c **** *  the EnableInt command should be called if interrupt generation is required.
 203:Generated_Source\PSoC5/OddEvenTimer.c **** *
 204:Generated_Source\PSoC5/OddEvenTimer.c **** * Parameters:
 205:Generated_Source\PSoC5/OddEvenTimer.c **** *  void
 206:Generated_Source\PSoC5/OddEvenTimer.c **** *
 207:Generated_Source\PSoC5/OddEvenTimer.c **** * Return:
 208:Generated_Source\PSoC5/OddEvenTimer.c **** *  void
 209:Generated_Source\PSoC5/OddEvenTimer.c **** *
 210:Generated_Source\PSoC5/OddEvenTimer.c **** * Global variables:
 211:Generated_Source\PSoC5/OddEvenTimer.c **** *  OddEvenTimer_initVar: Is modified when this function is called for the
 212:Generated_Source\PSoC5/OddEvenTimer.c **** *   first time. Is used to ensure that initialization happens only once.
 213:Generated_Source\PSoC5/OddEvenTimer.c **** *
 214:Generated_Source\PSoC5/OddEvenTimer.c **** *******************************************************************************/
 215:Generated_Source\PSoC5/OddEvenTimer.c **** void OddEvenTimer_Start(void) 
 216:Generated_Source\PSoC5/OddEvenTimer.c **** {
 217:Generated_Source\PSoC5/OddEvenTimer.c ****     if(OddEvenTimer_initVar == 0u)
 218:Generated_Source\PSoC5/OddEvenTimer.c ****     {
 219:Generated_Source\PSoC5/OddEvenTimer.c ****         OddEvenTimer_Init();
 220:Generated_Source\PSoC5/OddEvenTimer.c **** 
 221:Generated_Source\PSoC5/OddEvenTimer.c ****         OddEvenTimer_initVar = 1u;   /* Clear this bit for Initialization */
 222:Generated_Source\PSoC5/OddEvenTimer.c ****     }
 223:Generated_Source\PSoC5/OddEvenTimer.c **** 
 224:Generated_Source\PSoC5/OddEvenTimer.c ****     /* Enable the Timer */
 225:Generated_Source\PSoC5/OddEvenTimer.c ****     OddEvenTimer_Enable();
 226:Generated_Source\PSoC5/OddEvenTimer.c **** }
 227:Generated_Source\PSoC5/OddEvenTimer.c **** 
 228:Generated_Source\PSoC5/OddEvenTimer.c **** 
 229:Generated_Source\PSoC5/OddEvenTimer.c **** /*******************************************************************************
 230:Generated_Source\PSoC5/OddEvenTimer.c **** * Function Name: OddEvenTimer_Stop
 231:Generated_Source\PSoC5/OddEvenTimer.c **** ********************************************************************************
 232:Generated_Source\PSoC5/OddEvenTimer.c **** *
ARM GAS  C:\Users\nkhedkar\AppData\Local\Temp\ccbIg4SS.s 			page 6


 233:Generated_Source\PSoC5/OddEvenTimer.c **** * Summary:
 234:Generated_Source\PSoC5/OddEvenTimer.c **** *  The stop function halts the timer, but does not change any modes or disable
 235:Generated_Source\PSoC5/OddEvenTimer.c **** *  interrupts.
 236:Generated_Source\PSoC5/OddEvenTimer.c **** *
 237:Generated_Source\PSoC5/OddEvenTimer.c **** * Parameters:
 238:Generated_Source\PSoC5/OddEvenTimer.c **** *  void
 239:Generated_Source\PSoC5/OddEvenTimer.c **** *
 240:Generated_Source\PSoC5/OddEvenTimer.c **** * Return:
 241:Generated_Source\PSoC5/OddEvenTimer.c **** *  void
 242:Generated_Source\PSoC5/OddEvenTimer.c **** *
 243:Generated_Source\PSoC5/OddEvenTimer.c **** * Side Effects: If the Enable mode is set to Hardware only then this function
 244:Generated_Source\PSoC5/OddEvenTimer.c **** *               has no effect on the operation of the timer.
 245:Generated_Source\PSoC5/OddEvenTimer.c **** *
 246:Generated_Source\PSoC5/OddEvenTimer.c **** *******************************************************************************/
 247:Generated_Source\PSoC5/OddEvenTimer.c **** void OddEvenTimer_Stop(void) 
 248:Generated_Source\PSoC5/OddEvenTimer.c **** {
  54              		.loc 1 248 0
  55              		.cfi_startproc
  56              		@ args = 0, pretend = 0, frame = 0
  57              		@ frame_needed = 0, uses_anonymous_args = 0
  58              		@ link register save eliminated.
 249:Generated_Source\PSoC5/OddEvenTimer.c ****     /* Disable Timer */
 250:Generated_Source\PSoC5/OddEvenTimer.c ****     #if(!OddEvenTimer_UDB_CONTROL_REG_REMOVED || OddEvenTimer_UsingFixedFunction)
 251:Generated_Source\PSoC5/OddEvenTimer.c ****         OddEvenTimer_CONTROL &= ((uint8)(~OddEvenTimer_CTRL_ENABLE));
  59              		.loc 1 251 0
  60 0000 024A     		ldr	r2, .L5
  61 0002 1378     		ldrb	r3, [r2]	@ zero_extendqisi2
  62 0004 03F07F03 		and	r3, r3, #127
  63 0008 1370     		strb	r3, [r2]
  64 000a 7047     		bx	lr
  65              	.L6:
  66              		.align	2
  67              	.L5:
  68 000c 78650040 		.word	1073767800
  69              		.cfi_endproc
  70              	.LFE3:
  71              		.size	OddEvenTimer_Stop, .-OddEvenTimer_Stop
  72              		.section	.text.OddEvenTimer_SetInterruptMode,"ax",%progbits
  73              		.align	2
  74              		.global	OddEvenTimer_SetInterruptMode
  75              		.thumb
  76              		.thumb_func
  77              		.type	OddEvenTimer_SetInterruptMode, %function
  78              	OddEvenTimer_SetInterruptMode:
  79              	.LFB4:
 252:Generated_Source\PSoC5/OddEvenTimer.c ****     #endif /* Remove assignment if control register is removed */
 253:Generated_Source\PSoC5/OddEvenTimer.c **** 
 254:Generated_Source\PSoC5/OddEvenTimer.c ****     /* Globally disable the Fixed Function Block chosen */
 255:Generated_Source\PSoC5/OddEvenTimer.c ****     #if (OddEvenTimer_UsingFixedFunction)
 256:Generated_Source\PSoC5/OddEvenTimer.c ****         OddEvenTimer_GLOBAL_ENABLE &= ((uint8)(~OddEvenTimer_BLOCK_EN_MASK));
 257:Generated_Source\PSoC5/OddEvenTimer.c ****         OddEvenTimer_GLOBAL_STBY_ENABLE &= ((uint8)(~OddEvenTimer_BLOCK_STBY_EN_MASK));
 258:Generated_Source\PSoC5/OddEvenTimer.c ****     #endif /* Disable global enable for the Timer Fixed function block to stop the Timer*/
 259:Generated_Source\PSoC5/OddEvenTimer.c **** }
 260:Generated_Source\PSoC5/OddEvenTimer.c **** 
 261:Generated_Source\PSoC5/OddEvenTimer.c **** 
 262:Generated_Source\PSoC5/OddEvenTimer.c **** /*******************************************************************************
 263:Generated_Source\PSoC5/OddEvenTimer.c **** * Function Name: OddEvenTimer_SetInterruptMode
ARM GAS  C:\Users\nkhedkar\AppData\Local\Temp\ccbIg4SS.s 			page 7


 264:Generated_Source\PSoC5/OddEvenTimer.c **** ********************************************************************************
 265:Generated_Source\PSoC5/OddEvenTimer.c **** *
 266:Generated_Source\PSoC5/OddEvenTimer.c **** * Summary:
 267:Generated_Source\PSoC5/OddEvenTimer.c **** *  This function selects which of the interrupt inputs may cause an interrupt.
 268:Generated_Source\PSoC5/OddEvenTimer.c **** *  The twosources are caputure and terminal.  One, both or neither may
 269:Generated_Source\PSoC5/OddEvenTimer.c **** *  be selected.
 270:Generated_Source\PSoC5/OddEvenTimer.c **** *
 271:Generated_Source\PSoC5/OddEvenTimer.c **** * Parameters:
 272:Generated_Source\PSoC5/OddEvenTimer.c **** *  interruptMode:   This parameter is used to enable interrups on either/or
 273:Generated_Source\PSoC5/OddEvenTimer.c **** *                   terminal count or capture.
 274:Generated_Source\PSoC5/OddEvenTimer.c **** *
 275:Generated_Source\PSoC5/OddEvenTimer.c **** * Return:
 276:Generated_Source\PSoC5/OddEvenTimer.c **** *  void
 277:Generated_Source\PSoC5/OddEvenTimer.c **** *
 278:Generated_Source\PSoC5/OddEvenTimer.c **** *******************************************************************************/
 279:Generated_Source\PSoC5/OddEvenTimer.c **** void OddEvenTimer_SetInterruptMode(uint8 interruptMode) 
 280:Generated_Source\PSoC5/OddEvenTimer.c **** {
  80              		.loc 1 280 0
  81              		.cfi_startproc
  82              		@ args = 0, pretend = 0, frame = 0
  83              		@ frame_needed = 0, uses_anonymous_args = 0
  84              		@ link register save eliminated.
  85              	.LVL0:
 281:Generated_Source\PSoC5/OddEvenTimer.c ****     OddEvenTimer_STATUS_MASK = interruptMode;
  86              		.loc 1 281 0
  87 0000 014B     		ldr	r3, .L8
  88 0002 1870     		strb	r0, [r3]
  89 0004 7047     		bx	lr
  90              	.L9:
  91 0006 00BF     		.align	2
  92              	.L8:
  93 0008 8E640040 		.word	1073767566
  94              		.cfi_endproc
  95              	.LFE4:
  96              		.size	OddEvenTimer_SetInterruptMode, .-OddEvenTimer_SetInterruptMode
  97              		.section	.text.OddEvenTimer_SoftwareCapture,"ax",%progbits
  98              		.align	2
  99              		.global	OddEvenTimer_SoftwareCapture
 100              		.thumb
 101              		.thumb_func
 102              		.type	OddEvenTimer_SoftwareCapture, %function
 103              	OddEvenTimer_SoftwareCapture:
 104              	.LFB5:
 282:Generated_Source\PSoC5/OddEvenTimer.c **** }
 283:Generated_Source\PSoC5/OddEvenTimer.c **** 
 284:Generated_Source\PSoC5/OddEvenTimer.c **** 
 285:Generated_Source\PSoC5/OddEvenTimer.c **** /*******************************************************************************
 286:Generated_Source\PSoC5/OddEvenTimer.c **** * Function Name: OddEvenTimer_SoftwareCapture
 287:Generated_Source\PSoC5/OddEvenTimer.c **** ********************************************************************************
 288:Generated_Source\PSoC5/OddEvenTimer.c **** *
 289:Generated_Source\PSoC5/OddEvenTimer.c **** * Summary:
 290:Generated_Source\PSoC5/OddEvenTimer.c **** *  This function forces a capture independent of the capture signal.
 291:Generated_Source\PSoC5/OddEvenTimer.c **** *
 292:Generated_Source\PSoC5/OddEvenTimer.c **** * Parameters:
 293:Generated_Source\PSoC5/OddEvenTimer.c **** *  void
 294:Generated_Source\PSoC5/OddEvenTimer.c **** *
 295:Generated_Source\PSoC5/OddEvenTimer.c **** * Return:
ARM GAS  C:\Users\nkhedkar\AppData\Local\Temp\ccbIg4SS.s 			page 8


 296:Generated_Source\PSoC5/OddEvenTimer.c **** *  void
 297:Generated_Source\PSoC5/OddEvenTimer.c **** *
 298:Generated_Source\PSoC5/OddEvenTimer.c **** * Side Effects:
 299:Generated_Source\PSoC5/OddEvenTimer.c **** *  An existing hardware capture could be overwritten.
 300:Generated_Source\PSoC5/OddEvenTimer.c **** *
 301:Generated_Source\PSoC5/OddEvenTimer.c **** *******************************************************************************/
 302:Generated_Source\PSoC5/OddEvenTimer.c **** void OddEvenTimer_SoftwareCapture(void) 
 303:Generated_Source\PSoC5/OddEvenTimer.c **** {
 105              		.loc 1 303 0
 106              		.cfi_startproc
 107              		@ args = 0, pretend = 0, frame = 0
 108              		@ frame_needed = 0, uses_anonymous_args = 0
 109              		@ link register save eliminated.
 304:Generated_Source\PSoC5/OddEvenTimer.c ****     /* Generate a software capture by reading the counter register */
 305:Generated_Source\PSoC5/OddEvenTimer.c ****     #if(OddEvenTimer_UsingFixedFunction)
 306:Generated_Source\PSoC5/OddEvenTimer.c ****         (void)CY_GET_REG16(OddEvenTimer_COUNTER_LSB_PTR);
 307:Generated_Source\PSoC5/OddEvenTimer.c ****     #else
 308:Generated_Source\PSoC5/OddEvenTimer.c ****         (void)CY_GET_REG8(OddEvenTimer_COUNTER_LSB_PTR_8BIT);
 110              		.loc 1 308 0
 111 0000 014B     		ldr	r3, .L11
 112 0002 1B78     		ldrb	r3, [r3]	@ zero_extendqisi2
 113 0004 7047     		bx	lr
 114              	.L12:
 115 0006 00BF     		.align	2
 116              	.L11:
 117 0008 0B640040 		.word	1073767435
 118              		.cfi_endproc
 119              	.LFE5:
 120              		.size	OddEvenTimer_SoftwareCapture, .-OddEvenTimer_SoftwareCapture
 121              		.section	.text.OddEvenTimer_ReadStatusRegister,"ax",%progbits
 122              		.align	2
 123              		.global	OddEvenTimer_ReadStatusRegister
 124              		.thumb
 125              		.thumb_func
 126              		.type	OddEvenTimer_ReadStatusRegister, %function
 127              	OddEvenTimer_ReadStatusRegister:
 128              	.LFB6:
 309:Generated_Source\PSoC5/OddEvenTimer.c ****     #endif/* (OddEvenTimer_UsingFixedFunction) */
 310:Generated_Source\PSoC5/OddEvenTimer.c ****     /* Capture Data is now in the FIFO */
 311:Generated_Source\PSoC5/OddEvenTimer.c **** }
 312:Generated_Source\PSoC5/OddEvenTimer.c **** 
 313:Generated_Source\PSoC5/OddEvenTimer.c **** 
 314:Generated_Source\PSoC5/OddEvenTimer.c **** /*******************************************************************************
 315:Generated_Source\PSoC5/OddEvenTimer.c **** * Function Name: OddEvenTimer_ReadStatusRegister
 316:Generated_Source\PSoC5/OddEvenTimer.c **** ********************************************************************************
 317:Generated_Source\PSoC5/OddEvenTimer.c **** *
 318:Generated_Source\PSoC5/OddEvenTimer.c **** * Summary:
 319:Generated_Source\PSoC5/OddEvenTimer.c **** *  Reads the status register and returns it's state. This function should use
 320:Generated_Source\PSoC5/OddEvenTimer.c **** *  defined types for the bit-field information as the bits in this register may
 321:Generated_Source\PSoC5/OddEvenTimer.c **** *  be permuteable.
 322:Generated_Source\PSoC5/OddEvenTimer.c **** *
 323:Generated_Source\PSoC5/OddEvenTimer.c **** * Parameters:
 324:Generated_Source\PSoC5/OddEvenTimer.c **** *  void
 325:Generated_Source\PSoC5/OddEvenTimer.c **** *
 326:Generated_Source\PSoC5/OddEvenTimer.c **** * Return:
 327:Generated_Source\PSoC5/OddEvenTimer.c **** *  The contents of the status register
 328:Generated_Source\PSoC5/OddEvenTimer.c **** *
ARM GAS  C:\Users\nkhedkar\AppData\Local\Temp\ccbIg4SS.s 			page 9


 329:Generated_Source\PSoC5/OddEvenTimer.c **** * Side Effects:
 330:Generated_Source\PSoC5/OddEvenTimer.c **** *  Status register bits may be clear on read.
 331:Generated_Source\PSoC5/OddEvenTimer.c **** *
 332:Generated_Source\PSoC5/OddEvenTimer.c **** *******************************************************************************/
 333:Generated_Source\PSoC5/OddEvenTimer.c **** uint8   OddEvenTimer_ReadStatusRegister(void) 
 334:Generated_Source\PSoC5/OddEvenTimer.c **** {
 129              		.loc 1 334 0
 130              		.cfi_startproc
 131              		@ args = 0, pretend = 0, frame = 0
 132              		@ frame_needed = 0, uses_anonymous_args = 0
 133              		@ link register save eliminated.
 335:Generated_Source\PSoC5/OddEvenTimer.c ****     return (OddEvenTimer_STATUS);
 134              		.loc 1 335 0
 135 0000 014B     		ldr	r3, .L14
 136 0002 1878     		ldrb	r0, [r3]	@ zero_extendqisi2
 336:Generated_Source\PSoC5/OddEvenTimer.c **** }
 137              		.loc 1 336 0
 138 0004 7047     		bx	lr
 139              	.L15:
 140 0006 00BF     		.align	2
 141              	.L14:
 142 0008 6E640040 		.word	1073767534
 143              		.cfi_endproc
 144              	.LFE6:
 145              		.size	OddEvenTimer_ReadStatusRegister, .-OddEvenTimer_ReadStatusRegister
 146              		.section	.text.OddEvenTimer_ReadControlRegister,"ax",%progbits
 147              		.align	2
 148              		.global	OddEvenTimer_ReadControlRegister
 149              		.thumb
 150              		.thumb_func
 151              		.type	OddEvenTimer_ReadControlRegister, %function
 152              	OddEvenTimer_ReadControlRegister:
 153              	.LFB7:
 337:Generated_Source\PSoC5/OddEvenTimer.c **** 
 338:Generated_Source\PSoC5/OddEvenTimer.c **** 
 339:Generated_Source\PSoC5/OddEvenTimer.c **** #if (!OddEvenTimer_UDB_CONTROL_REG_REMOVED) /* Remove API if control register is unused */
 340:Generated_Source\PSoC5/OddEvenTimer.c **** 
 341:Generated_Source\PSoC5/OddEvenTimer.c **** 
 342:Generated_Source\PSoC5/OddEvenTimer.c **** /*******************************************************************************
 343:Generated_Source\PSoC5/OddEvenTimer.c **** * Function Name: OddEvenTimer_ReadControlRegister
 344:Generated_Source\PSoC5/OddEvenTimer.c **** ********************************************************************************
 345:Generated_Source\PSoC5/OddEvenTimer.c **** *
 346:Generated_Source\PSoC5/OddEvenTimer.c **** * Summary:
 347:Generated_Source\PSoC5/OddEvenTimer.c **** *  Reads the control register and returns it's value.
 348:Generated_Source\PSoC5/OddEvenTimer.c **** *
 349:Generated_Source\PSoC5/OddEvenTimer.c **** * Parameters:
 350:Generated_Source\PSoC5/OddEvenTimer.c **** *  void
 351:Generated_Source\PSoC5/OddEvenTimer.c **** *
 352:Generated_Source\PSoC5/OddEvenTimer.c **** * Return:
 353:Generated_Source\PSoC5/OddEvenTimer.c **** *  The contents of the control register
 354:Generated_Source\PSoC5/OddEvenTimer.c **** *
 355:Generated_Source\PSoC5/OddEvenTimer.c **** *******************************************************************************/
 356:Generated_Source\PSoC5/OddEvenTimer.c **** uint8 OddEvenTimer_ReadControlRegister(void) 
 357:Generated_Source\PSoC5/OddEvenTimer.c **** {
 154              		.loc 1 357 0
 155              		.cfi_startproc
 156              		@ args = 0, pretend = 0, frame = 0
ARM GAS  C:\Users\nkhedkar\AppData\Local\Temp\ccbIg4SS.s 			page 10


 157              		@ frame_needed = 0, uses_anonymous_args = 0
 158              		@ link register save eliminated.
 358:Generated_Source\PSoC5/OddEvenTimer.c ****     #if (!OddEvenTimer_UDB_CONTROL_REG_REMOVED) 
 359:Generated_Source\PSoC5/OddEvenTimer.c ****         return ((uint8)OddEvenTimer_CONTROL);
 159              		.loc 1 359 0
 160 0000 014B     		ldr	r3, .L17
 161 0002 1878     		ldrb	r0, [r3]	@ zero_extendqisi2
 360:Generated_Source\PSoC5/OddEvenTimer.c ****     #else
 361:Generated_Source\PSoC5/OddEvenTimer.c ****         return (0);
 362:Generated_Source\PSoC5/OddEvenTimer.c ****     #endif /* (!OddEvenTimer_UDB_CONTROL_REG_REMOVED) */
 363:Generated_Source\PSoC5/OddEvenTimer.c **** }
 162              		.loc 1 363 0
 163 0004 7047     		bx	lr
 164              	.L18:
 165 0006 00BF     		.align	2
 166              	.L17:
 167 0008 78650040 		.word	1073767800
 168              		.cfi_endproc
 169              	.LFE7:
 170              		.size	OddEvenTimer_ReadControlRegister, .-OddEvenTimer_ReadControlRegister
 171              		.section	.text.OddEvenTimer_WriteControlRegister,"ax",%progbits
 172              		.align	2
 173              		.global	OddEvenTimer_WriteControlRegister
 174              		.thumb
 175              		.thumb_func
 176              		.type	OddEvenTimer_WriteControlRegister, %function
 177              	OddEvenTimer_WriteControlRegister:
 178              	.LFB8:
 364:Generated_Source\PSoC5/OddEvenTimer.c **** 
 365:Generated_Source\PSoC5/OddEvenTimer.c **** 
 366:Generated_Source\PSoC5/OddEvenTimer.c **** /*******************************************************************************
 367:Generated_Source\PSoC5/OddEvenTimer.c **** * Function Name: OddEvenTimer_WriteControlRegister
 368:Generated_Source\PSoC5/OddEvenTimer.c **** ********************************************************************************
 369:Generated_Source\PSoC5/OddEvenTimer.c **** *
 370:Generated_Source\PSoC5/OddEvenTimer.c **** * Summary:
 371:Generated_Source\PSoC5/OddEvenTimer.c **** *  Sets the bit-field of the control register.
 372:Generated_Source\PSoC5/OddEvenTimer.c **** *
 373:Generated_Source\PSoC5/OddEvenTimer.c **** * Parameters:
 374:Generated_Source\PSoC5/OddEvenTimer.c **** *  control: The contents of the control register
 375:Generated_Source\PSoC5/OddEvenTimer.c **** *
 376:Generated_Source\PSoC5/OddEvenTimer.c **** * Return:
 377:Generated_Source\PSoC5/OddEvenTimer.c **** *
 378:Generated_Source\PSoC5/OddEvenTimer.c **** *******************************************************************************/
 379:Generated_Source\PSoC5/OddEvenTimer.c **** void OddEvenTimer_WriteControlRegister(uint8 control) 
 380:Generated_Source\PSoC5/OddEvenTimer.c **** {
 179              		.loc 1 380 0
 180              		.cfi_startproc
 181              		@ args = 0, pretend = 0, frame = 0
 182              		@ frame_needed = 0, uses_anonymous_args = 0
 183              		@ link register save eliminated.
 184              	.LVL1:
 381:Generated_Source\PSoC5/OddEvenTimer.c ****     #if (!OddEvenTimer_UDB_CONTROL_REG_REMOVED) 
 382:Generated_Source\PSoC5/OddEvenTimer.c ****         OddEvenTimer_CONTROL = control;
 185              		.loc 1 382 0
 186 0000 014B     		ldr	r3, .L20
 187 0002 1870     		strb	r0, [r3]
 188 0004 7047     		bx	lr
ARM GAS  C:\Users\nkhedkar\AppData\Local\Temp\ccbIg4SS.s 			page 11


 189              	.L21:
 190 0006 00BF     		.align	2
 191              	.L20:
 192 0008 78650040 		.word	1073767800
 193              		.cfi_endproc
 194              	.LFE8:
 195              		.size	OddEvenTimer_WriteControlRegister, .-OddEvenTimer_WriteControlRegister
 196              		.section	.text.OddEvenTimer_ReadPeriod,"ax",%progbits
 197              		.align	2
 198              		.global	OddEvenTimer_ReadPeriod
 199              		.thumb
 200              		.thumb_func
 201              		.type	OddEvenTimer_ReadPeriod, %function
 202              	OddEvenTimer_ReadPeriod:
 203              	.LFB9:
 383:Generated_Source\PSoC5/OddEvenTimer.c ****     #else
 384:Generated_Source\PSoC5/OddEvenTimer.c ****         control = 0u;
 385:Generated_Source\PSoC5/OddEvenTimer.c ****     #endif /* (!OddEvenTimer_UDB_CONTROL_REG_REMOVED) */
 386:Generated_Source\PSoC5/OddEvenTimer.c **** }
 387:Generated_Source\PSoC5/OddEvenTimer.c **** 
 388:Generated_Source\PSoC5/OddEvenTimer.c **** #endif /* Remove API if control register is unused */
 389:Generated_Source\PSoC5/OddEvenTimer.c **** 
 390:Generated_Source\PSoC5/OddEvenTimer.c **** 
 391:Generated_Source\PSoC5/OddEvenTimer.c **** /*******************************************************************************
 392:Generated_Source\PSoC5/OddEvenTimer.c **** * Function Name: OddEvenTimer_ReadPeriod
 393:Generated_Source\PSoC5/OddEvenTimer.c **** ********************************************************************************
 394:Generated_Source\PSoC5/OddEvenTimer.c **** *
 395:Generated_Source\PSoC5/OddEvenTimer.c **** * Summary:
 396:Generated_Source\PSoC5/OddEvenTimer.c **** *  This function returns the current value of the Period.
 397:Generated_Source\PSoC5/OddEvenTimer.c **** *
 398:Generated_Source\PSoC5/OddEvenTimer.c **** * Parameters:
 399:Generated_Source\PSoC5/OddEvenTimer.c **** *  void
 400:Generated_Source\PSoC5/OddEvenTimer.c **** *
 401:Generated_Source\PSoC5/OddEvenTimer.c **** * Return:
 402:Generated_Source\PSoC5/OddEvenTimer.c **** *  The present value of the counter.
 403:Generated_Source\PSoC5/OddEvenTimer.c **** *
 404:Generated_Source\PSoC5/OddEvenTimer.c **** *******************************************************************************/
 405:Generated_Source\PSoC5/OddEvenTimer.c **** uint32 OddEvenTimer_ReadPeriod(void) 
 406:Generated_Source\PSoC5/OddEvenTimer.c **** {
 204              		.loc 1 406 0
 205              		.cfi_startproc
 206              		@ args = 0, pretend = 0, frame = 0
 207              		@ frame_needed = 0, uses_anonymous_args = 0
 208              		@ link register save eliminated.
 407:Generated_Source\PSoC5/OddEvenTimer.c ****    #if(OddEvenTimer_UsingFixedFunction)
 408:Generated_Source\PSoC5/OddEvenTimer.c ****        return ((uint32)CY_GET_REG16(OddEvenTimer_PERIOD_LSB_PTR));
 409:Generated_Source\PSoC5/OddEvenTimer.c ****    #else
 410:Generated_Source\PSoC5/OddEvenTimer.c ****        return (CY_GET_REG32(OddEvenTimer_PERIOD_LSB_PTR));
 209              		.loc 1 410 0
 210 0000 014B     		ldr	r3, .L23
 211 0002 1868     		ldr	r0, [r3]	@ unaligned
 411:Generated_Source\PSoC5/OddEvenTimer.c ****    #endif /* (OddEvenTimer_UsingFixedFunction) */
 412:Generated_Source\PSoC5/OddEvenTimer.c **** }
 212              		.loc 1 412 0
 213 0004 7047     		bx	lr
 214              	.L24:
 215 0006 00BF     		.align	2
ARM GAS  C:\Users\nkhedkar\AppData\Local\Temp\ccbIg4SS.s 			page 12


 216              	.L23:
 217 0008 2B640040 		.word	1073767467
 218              		.cfi_endproc
 219              	.LFE9:
 220              		.size	OddEvenTimer_ReadPeriod, .-OddEvenTimer_ReadPeriod
 221              		.section	.text.OddEvenTimer_WritePeriod,"ax",%progbits
 222              		.align	2
 223              		.global	OddEvenTimer_WritePeriod
 224              		.thumb
 225              		.thumb_func
 226              		.type	OddEvenTimer_WritePeriod, %function
 227              	OddEvenTimer_WritePeriod:
 228              	.LFB10:
 413:Generated_Source\PSoC5/OddEvenTimer.c **** 
 414:Generated_Source\PSoC5/OddEvenTimer.c **** 
 415:Generated_Source\PSoC5/OddEvenTimer.c **** /*******************************************************************************
 416:Generated_Source\PSoC5/OddEvenTimer.c **** * Function Name: OddEvenTimer_WritePeriod
 417:Generated_Source\PSoC5/OddEvenTimer.c **** ********************************************************************************
 418:Generated_Source\PSoC5/OddEvenTimer.c **** *
 419:Generated_Source\PSoC5/OddEvenTimer.c **** * Summary:
 420:Generated_Source\PSoC5/OddEvenTimer.c **** *  This function is used to change the period of the counter.  The new period
 421:Generated_Source\PSoC5/OddEvenTimer.c **** *  will be loaded the next time terminal count is detected.
 422:Generated_Source\PSoC5/OddEvenTimer.c **** *
 423:Generated_Source\PSoC5/OddEvenTimer.c **** * Parameters:
 424:Generated_Source\PSoC5/OddEvenTimer.c **** *  period: This value may be between 1 and (2^Resolution)-1.  A value of 0 will
 425:Generated_Source\PSoC5/OddEvenTimer.c **** *          result in the counter remaining at zero.
 426:Generated_Source\PSoC5/OddEvenTimer.c **** *
 427:Generated_Source\PSoC5/OddEvenTimer.c **** * Return:
 428:Generated_Source\PSoC5/OddEvenTimer.c **** *  void
 429:Generated_Source\PSoC5/OddEvenTimer.c **** *
 430:Generated_Source\PSoC5/OddEvenTimer.c **** *******************************************************************************/
 431:Generated_Source\PSoC5/OddEvenTimer.c **** void OddEvenTimer_WritePeriod(uint32 period) 
 432:Generated_Source\PSoC5/OddEvenTimer.c **** {
 229              		.loc 1 432 0
 230              		.cfi_startproc
 231              		@ args = 0, pretend = 0, frame = 0
 232              		@ frame_needed = 0, uses_anonymous_args = 0
 233              		@ link register save eliminated.
 234              	.LVL2:
 433:Generated_Source\PSoC5/OddEvenTimer.c ****     #if(OddEvenTimer_UsingFixedFunction)
 434:Generated_Source\PSoC5/OddEvenTimer.c ****         uint16 period_temp = (uint16)period;
 435:Generated_Source\PSoC5/OddEvenTimer.c ****         CY_SET_REG16(OddEvenTimer_PERIOD_LSB_PTR, period_temp);
 436:Generated_Source\PSoC5/OddEvenTimer.c ****     #else
 437:Generated_Source\PSoC5/OddEvenTimer.c ****         CY_SET_REG32(OddEvenTimer_PERIOD_LSB_PTR, period);
 235              		.loc 1 437 0
 236 0000 014B     		ldr	r3, .L26
 237 0002 1860     		str	r0, [r3]	@ unaligned
 238 0004 7047     		bx	lr
 239              	.L27:
 240 0006 00BF     		.align	2
 241              	.L26:
 242 0008 2B640040 		.word	1073767467
 243              		.cfi_endproc
 244              	.LFE10:
 245              		.size	OddEvenTimer_WritePeriod, .-OddEvenTimer_WritePeriod
 246              		.section	.text.OddEvenTimer_ReadCapture,"ax",%progbits
 247              		.align	2
ARM GAS  C:\Users\nkhedkar\AppData\Local\Temp\ccbIg4SS.s 			page 13


 248              		.global	OddEvenTimer_ReadCapture
 249              		.thumb
 250              		.thumb_func
 251              		.type	OddEvenTimer_ReadCapture, %function
 252              	OddEvenTimer_ReadCapture:
 253              	.LFB11:
 438:Generated_Source\PSoC5/OddEvenTimer.c ****     #endif /*Write Period value with appropriate resolution suffix depending on UDB or fixed functi
 439:Generated_Source\PSoC5/OddEvenTimer.c **** }
 440:Generated_Source\PSoC5/OddEvenTimer.c **** 
 441:Generated_Source\PSoC5/OddEvenTimer.c **** 
 442:Generated_Source\PSoC5/OddEvenTimer.c **** /*******************************************************************************
 443:Generated_Source\PSoC5/OddEvenTimer.c **** * Function Name: OddEvenTimer_ReadCapture
 444:Generated_Source\PSoC5/OddEvenTimer.c **** ********************************************************************************
 445:Generated_Source\PSoC5/OddEvenTimer.c **** *
 446:Generated_Source\PSoC5/OddEvenTimer.c **** * Summary:
 447:Generated_Source\PSoC5/OddEvenTimer.c **** *  This function returns the last value captured.
 448:Generated_Source\PSoC5/OddEvenTimer.c **** *
 449:Generated_Source\PSoC5/OddEvenTimer.c **** * Parameters:
 450:Generated_Source\PSoC5/OddEvenTimer.c **** *  void
 451:Generated_Source\PSoC5/OddEvenTimer.c **** *
 452:Generated_Source\PSoC5/OddEvenTimer.c **** * Return:
 453:Generated_Source\PSoC5/OddEvenTimer.c **** *  Present Capture value.
 454:Generated_Source\PSoC5/OddEvenTimer.c **** *
 455:Generated_Source\PSoC5/OddEvenTimer.c **** *******************************************************************************/
 456:Generated_Source\PSoC5/OddEvenTimer.c **** uint32 OddEvenTimer_ReadCapture(void) 
 457:Generated_Source\PSoC5/OddEvenTimer.c **** {
 254              		.loc 1 457 0
 255              		.cfi_startproc
 256              		@ args = 0, pretend = 0, frame = 0
 257              		@ frame_needed = 0, uses_anonymous_args = 0
 258              		@ link register save eliminated.
 458:Generated_Source\PSoC5/OddEvenTimer.c ****    #if(OddEvenTimer_UsingFixedFunction)
 459:Generated_Source\PSoC5/OddEvenTimer.c ****        return ((uint32)CY_GET_REG16(OddEvenTimer_CAPTURE_LSB_PTR));
 460:Generated_Source\PSoC5/OddEvenTimer.c ****    #else
 461:Generated_Source\PSoC5/OddEvenTimer.c ****        return (CY_GET_REG32(OddEvenTimer_CAPTURE_LSB_PTR));
 259              		.loc 1 461 0
 260 0000 014B     		ldr	r3, .L29
 261 0002 1868     		ldr	r0, [r3]	@ unaligned
 462:Generated_Source\PSoC5/OddEvenTimer.c ****    #endif /* (OddEvenTimer_UsingFixedFunction) */
 463:Generated_Source\PSoC5/OddEvenTimer.c **** }
 262              		.loc 1 463 0
 263 0004 7047     		bx	lr
 264              	.L30:
 265 0006 00BF     		.align	2
 266              	.L29:
 267 0008 4B640040 		.word	1073767499
 268              		.cfi_endproc
 269              	.LFE11:
 270              		.size	OddEvenTimer_ReadCapture, .-OddEvenTimer_ReadCapture
 271              		.section	.text.OddEvenTimer_WriteCounter,"ax",%progbits
 272              		.align	2
 273              		.global	OddEvenTimer_WriteCounter
 274              		.thumb
 275              		.thumb_func
 276              		.type	OddEvenTimer_WriteCounter, %function
 277              	OddEvenTimer_WriteCounter:
 278              	.LFB12:
ARM GAS  C:\Users\nkhedkar\AppData\Local\Temp\ccbIg4SS.s 			page 14


 464:Generated_Source\PSoC5/OddEvenTimer.c **** 
 465:Generated_Source\PSoC5/OddEvenTimer.c **** 
 466:Generated_Source\PSoC5/OddEvenTimer.c **** /*******************************************************************************
 467:Generated_Source\PSoC5/OddEvenTimer.c **** * Function Name: OddEvenTimer_WriteCounter
 468:Generated_Source\PSoC5/OddEvenTimer.c **** ********************************************************************************
 469:Generated_Source\PSoC5/OddEvenTimer.c **** *
 470:Generated_Source\PSoC5/OddEvenTimer.c **** * Summary:
 471:Generated_Source\PSoC5/OddEvenTimer.c **** *  This funtion is used to set the counter to a specific value
 472:Generated_Source\PSoC5/OddEvenTimer.c **** *
 473:Generated_Source\PSoC5/OddEvenTimer.c **** * Parameters:
 474:Generated_Source\PSoC5/OddEvenTimer.c **** *  counter:  New counter value.
 475:Generated_Source\PSoC5/OddEvenTimer.c **** *
 476:Generated_Source\PSoC5/OddEvenTimer.c **** * Return:
 477:Generated_Source\PSoC5/OddEvenTimer.c **** *  void
 478:Generated_Source\PSoC5/OddEvenTimer.c **** *
 479:Generated_Source\PSoC5/OddEvenTimer.c **** *******************************************************************************/
 480:Generated_Source\PSoC5/OddEvenTimer.c **** void OddEvenTimer_WriteCounter(uint32 counter) 
 481:Generated_Source\PSoC5/OddEvenTimer.c **** {
 279              		.loc 1 481 0
 280              		.cfi_startproc
 281              		@ args = 0, pretend = 0, frame = 0
 282              		@ frame_needed = 0, uses_anonymous_args = 0
 283              		@ link register save eliminated.
 284              	.LVL3:
 482:Generated_Source\PSoC5/OddEvenTimer.c ****    #if(OddEvenTimer_UsingFixedFunction)
 483:Generated_Source\PSoC5/OddEvenTimer.c ****         /* This functionality is removed until a FixedFunction HW update to
 484:Generated_Source\PSoC5/OddEvenTimer.c ****          * allow this register to be written
 485:Generated_Source\PSoC5/OddEvenTimer.c ****          */
 486:Generated_Source\PSoC5/OddEvenTimer.c ****         CY_SET_REG16(OddEvenTimer_COUNTER_LSB_PTR, (uint16)counter);
 487:Generated_Source\PSoC5/OddEvenTimer.c ****         
 488:Generated_Source\PSoC5/OddEvenTimer.c ****     #else
 489:Generated_Source\PSoC5/OddEvenTimer.c ****         CY_SET_REG32(OddEvenTimer_COUNTER_LSB_PTR, counter);
 285              		.loc 1 489 0
 286 0000 014B     		ldr	r3, .L32
 287 0002 1860     		str	r0, [r3]	@ unaligned
 288 0004 7047     		bx	lr
 289              	.L33:
 290 0006 00BF     		.align	2
 291              	.L32:
 292 0008 0B640040 		.word	1073767435
 293              		.cfi_endproc
 294              	.LFE12:
 295              		.size	OddEvenTimer_WriteCounter, .-OddEvenTimer_WriteCounter
 296              		.section	.text.OddEvenTimer_ReadCounter,"ax",%progbits
 297              		.align	2
 298              		.global	OddEvenTimer_ReadCounter
 299              		.thumb
 300              		.thumb_func
 301              		.type	OddEvenTimer_ReadCounter, %function
 302              	OddEvenTimer_ReadCounter:
 303              	.LFB13:
 490:Generated_Source\PSoC5/OddEvenTimer.c ****     #endif /* Set Write Counter only for the UDB implementation (Write Counter not available in fix
 491:Generated_Source\PSoC5/OddEvenTimer.c **** }
 492:Generated_Source\PSoC5/OddEvenTimer.c **** 
 493:Generated_Source\PSoC5/OddEvenTimer.c **** 
 494:Generated_Source\PSoC5/OddEvenTimer.c **** /*******************************************************************************
 495:Generated_Source\PSoC5/OddEvenTimer.c **** * Function Name: OddEvenTimer_ReadCounter
ARM GAS  C:\Users\nkhedkar\AppData\Local\Temp\ccbIg4SS.s 			page 15


 496:Generated_Source\PSoC5/OddEvenTimer.c **** ********************************************************************************
 497:Generated_Source\PSoC5/OddEvenTimer.c **** *
 498:Generated_Source\PSoC5/OddEvenTimer.c **** * Summary:
 499:Generated_Source\PSoC5/OddEvenTimer.c **** *  This function returns the current counter value.
 500:Generated_Source\PSoC5/OddEvenTimer.c **** *
 501:Generated_Source\PSoC5/OddEvenTimer.c **** * Parameters:
 502:Generated_Source\PSoC5/OddEvenTimer.c **** *  void
 503:Generated_Source\PSoC5/OddEvenTimer.c **** *
 504:Generated_Source\PSoC5/OddEvenTimer.c **** * Return:
 505:Generated_Source\PSoC5/OddEvenTimer.c **** *  Present compare value.
 506:Generated_Source\PSoC5/OddEvenTimer.c **** *
 507:Generated_Source\PSoC5/OddEvenTimer.c **** *******************************************************************************/
 508:Generated_Source\PSoC5/OddEvenTimer.c **** uint32 OddEvenTimer_ReadCounter(void) 
 509:Generated_Source\PSoC5/OddEvenTimer.c **** {
 304              		.loc 1 509 0
 305              		.cfi_startproc
 306              		@ args = 0, pretend = 0, frame = 0
 307              		@ frame_needed = 0, uses_anonymous_args = 0
 308              		@ link register save eliminated.
 510:Generated_Source\PSoC5/OddEvenTimer.c ****     /* Force capture by reading Accumulator */
 511:Generated_Source\PSoC5/OddEvenTimer.c ****     /* Must first do a software capture to be able to read the counter */
 512:Generated_Source\PSoC5/OddEvenTimer.c ****     /* It is up to the user code to make sure there isn't already captured data in the FIFO */
 513:Generated_Source\PSoC5/OddEvenTimer.c ****     #if(OddEvenTimer_UsingFixedFunction)
 514:Generated_Source\PSoC5/OddEvenTimer.c ****         (void)CY_GET_REG16(OddEvenTimer_COUNTER_LSB_PTR);
 515:Generated_Source\PSoC5/OddEvenTimer.c ****     #else
 516:Generated_Source\PSoC5/OddEvenTimer.c ****         (void)CY_GET_REG8(OddEvenTimer_COUNTER_LSB_PTR_8BIT);
 309              		.loc 1 516 0
 310 0000 024B     		ldr	r3, .L35
 311 0002 1B78     		ldrb	r3, [r3]	@ zero_extendqisi2
 517:Generated_Source\PSoC5/OddEvenTimer.c ****     #endif/* (OddEvenTimer_UsingFixedFunction) */
 518:Generated_Source\PSoC5/OddEvenTimer.c **** 
 519:Generated_Source\PSoC5/OddEvenTimer.c ****     /* Read the data from the FIFO (or capture register for Fixed Function)*/
 520:Generated_Source\PSoC5/OddEvenTimer.c ****     #if(OddEvenTimer_UsingFixedFunction)
 521:Generated_Source\PSoC5/OddEvenTimer.c ****         return ((uint32)CY_GET_REG16(OddEvenTimer_CAPTURE_LSB_PTR));
 522:Generated_Source\PSoC5/OddEvenTimer.c ****     #else
 523:Generated_Source\PSoC5/OddEvenTimer.c ****         return (CY_GET_REG32(OddEvenTimer_CAPTURE_LSB_PTR));
 312              		.loc 1 523 0
 313 0004 024B     		ldr	r3, .L35+4
 314 0006 1868     		ldr	r0, [r3]	@ unaligned
 524:Generated_Source\PSoC5/OddEvenTimer.c ****     #endif /* (OddEvenTimer_UsingFixedFunction) */
 525:Generated_Source\PSoC5/OddEvenTimer.c **** }
 315              		.loc 1 525 0
 316 0008 7047     		bx	lr
 317              	.L36:
 318 000a 00BF     		.align	2
 319              	.L35:
 320 000c 0B640040 		.word	1073767435
 321 0010 4B640040 		.word	1073767499
 322              		.cfi_endproc
 323              	.LFE13:
 324              		.size	OddEvenTimer_ReadCounter, .-OddEvenTimer_ReadCounter
 325              		.section	.text.OddEvenTimer_SetCaptureCount,"ax",%progbits
 326              		.align	2
 327              		.global	OddEvenTimer_SetCaptureCount
 328              		.thumb
 329              		.thumb_func
 330              		.type	OddEvenTimer_SetCaptureCount, %function
ARM GAS  C:\Users\nkhedkar\AppData\Local\Temp\ccbIg4SS.s 			page 16


 331              	OddEvenTimer_SetCaptureCount:
 332              	.LFB14:
 526:Generated_Source\PSoC5/OddEvenTimer.c **** 
 527:Generated_Source\PSoC5/OddEvenTimer.c **** 
 528:Generated_Source\PSoC5/OddEvenTimer.c **** #if(!OddEvenTimer_UsingFixedFunction) /* UDB Specific Functions */
 529:Generated_Source\PSoC5/OddEvenTimer.c **** 
 530:Generated_Source\PSoC5/OddEvenTimer.c ****     
 531:Generated_Source\PSoC5/OddEvenTimer.c **** /*******************************************************************************
 532:Generated_Source\PSoC5/OddEvenTimer.c ****  * The functions below this point are only available using the UDB
 533:Generated_Source\PSoC5/OddEvenTimer.c ****  * implementation.  If a feature is selected, then the API is enabled.
 534:Generated_Source\PSoC5/OddEvenTimer.c ****  ******************************************************************************/
 535:Generated_Source\PSoC5/OddEvenTimer.c **** 
 536:Generated_Source\PSoC5/OddEvenTimer.c **** 
 537:Generated_Source\PSoC5/OddEvenTimer.c **** #if (OddEvenTimer_SoftwareCaptureMode)
 538:Generated_Source\PSoC5/OddEvenTimer.c **** 
 539:Generated_Source\PSoC5/OddEvenTimer.c **** 
 540:Generated_Source\PSoC5/OddEvenTimer.c **** /*******************************************************************************
 541:Generated_Source\PSoC5/OddEvenTimer.c **** * Function Name: OddEvenTimer_SetCaptureMode
 542:Generated_Source\PSoC5/OddEvenTimer.c **** ********************************************************************************
 543:Generated_Source\PSoC5/OddEvenTimer.c **** *
 544:Generated_Source\PSoC5/OddEvenTimer.c **** * Summary:
 545:Generated_Source\PSoC5/OddEvenTimer.c **** *  This function sets the capture mode to either rising or falling edge.
 546:Generated_Source\PSoC5/OddEvenTimer.c **** *
 547:Generated_Source\PSoC5/OddEvenTimer.c **** * Parameters:
 548:Generated_Source\PSoC5/OddEvenTimer.c **** *  captureMode: This parameter sets the capture mode of the UDB capture feature
 549:Generated_Source\PSoC5/OddEvenTimer.c **** *  The parameter values are defined using the
 550:Generated_Source\PSoC5/OddEvenTimer.c **** *  #define OddEvenTimer__B_TIMER__CM_NONE 0
 551:Generated_Source\PSoC5/OddEvenTimer.c **** #define OddEvenTimer__B_TIMER__CM_RISINGEDGE 1
 552:Generated_Source\PSoC5/OddEvenTimer.c **** #define OddEvenTimer__B_TIMER__CM_FALLINGEDGE 2
 553:Generated_Source\PSoC5/OddEvenTimer.c **** #define OddEvenTimer__B_TIMER__CM_EITHEREDGE 3
 554:Generated_Source\PSoC5/OddEvenTimer.c **** #define OddEvenTimer__B_TIMER__CM_SOFTWARE 4
 555:Generated_Source\PSoC5/OddEvenTimer.c ****  identifiers
 556:Generated_Source\PSoC5/OddEvenTimer.c **** *  The following are the possible values of the parameter
 557:Generated_Source\PSoC5/OddEvenTimer.c **** *  OddEvenTimer__B_TIMER__CM_NONE        - Set Capture mode to None
 558:Generated_Source\PSoC5/OddEvenTimer.c **** *  OddEvenTimer__B_TIMER__CM_RISINGEDGE  - Rising edge of Capture input
 559:Generated_Source\PSoC5/OddEvenTimer.c **** *  OddEvenTimer__B_TIMER__CM_FALLINGEDGE - Falling edge of Capture input
 560:Generated_Source\PSoC5/OddEvenTimer.c **** *  OddEvenTimer__B_TIMER__CM_EITHEREDGE  - Either edge of Capture input
 561:Generated_Source\PSoC5/OddEvenTimer.c **** *
 562:Generated_Source\PSoC5/OddEvenTimer.c **** * Return:
 563:Generated_Source\PSoC5/OddEvenTimer.c **** *  void
 564:Generated_Source\PSoC5/OddEvenTimer.c **** *
 565:Generated_Source\PSoC5/OddEvenTimer.c **** *******************************************************************************/
 566:Generated_Source\PSoC5/OddEvenTimer.c **** void OddEvenTimer_SetCaptureMode(uint8 captureMode) 
 567:Generated_Source\PSoC5/OddEvenTimer.c **** {
 568:Generated_Source\PSoC5/OddEvenTimer.c ****     /* This must only set to two bits of the control register associated */
 569:Generated_Source\PSoC5/OddEvenTimer.c ****     captureMode = ((uint8)((uint8)captureMode << OddEvenTimer_CTRL_CAP_MODE_SHIFT));
 570:Generated_Source\PSoC5/OddEvenTimer.c ****     captureMode &= (OddEvenTimer_CTRL_CAP_MODE_MASK);
 571:Generated_Source\PSoC5/OddEvenTimer.c **** 
 572:Generated_Source\PSoC5/OddEvenTimer.c ****     #if (!OddEvenTimer_UDB_CONTROL_REG_REMOVED)
 573:Generated_Source\PSoC5/OddEvenTimer.c ****         /* Clear the Current Setting */
 574:Generated_Source\PSoC5/OddEvenTimer.c ****         OddEvenTimer_CONTROL &= ((uint8)(~OddEvenTimer_CTRL_CAP_MODE_MASK));
 575:Generated_Source\PSoC5/OddEvenTimer.c **** 
 576:Generated_Source\PSoC5/OddEvenTimer.c ****         /* Write The New Setting */
 577:Generated_Source\PSoC5/OddEvenTimer.c ****         OddEvenTimer_CONTROL |= captureMode;
 578:Generated_Source\PSoC5/OddEvenTimer.c ****     #endif /* (!OddEvenTimer_UDB_CONTROL_REG_REMOVED) */
 579:Generated_Source\PSoC5/OddEvenTimer.c **** }
 580:Generated_Source\PSoC5/OddEvenTimer.c **** #endif /* Remove API if Capture Mode is not Software Controlled */
ARM GAS  C:\Users\nkhedkar\AppData\Local\Temp\ccbIg4SS.s 			page 17


 581:Generated_Source\PSoC5/OddEvenTimer.c **** 
 582:Generated_Source\PSoC5/OddEvenTimer.c **** 
 583:Generated_Source\PSoC5/OddEvenTimer.c **** #if (OddEvenTimer_SoftwareTriggerMode)
 584:Generated_Source\PSoC5/OddEvenTimer.c **** 
 585:Generated_Source\PSoC5/OddEvenTimer.c **** 
 586:Generated_Source\PSoC5/OddEvenTimer.c **** /*******************************************************************************
 587:Generated_Source\PSoC5/OddEvenTimer.c **** * Function Name: OddEvenTimer_SetTriggerMode
 588:Generated_Source\PSoC5/OddEvenTimer.c **** ********************************************************************************
 589:Generated_Source\PSoC5/OddEvenTimer.c **** *
 590:Generated_Source\PSoC5/OddEvenTimer.c **** * Summary:
 591:Generated_Source\PSoC5/OddEvenTimer.c **** *  This function sets the trigger input mode
 592:Generated_Source\PSoC5/OddEvenTimer.c **** *
 593:Generated_Source\PSoC5/OddEvenTimer.c **** * Parameters:
 594:Generated_Source\PSoC5/OddEvenTimer.c **** *  triggerMode: Pass one of the pre-defined Trigger Modes (except Software)
 595:Generated_Source\PSoC5/OddEvenTimer.c ****     #define OddEvenTimer__B_TIMER__TM_NONE 0x00u
 596:Generated_Source\PSoC5/OddEvenTimer.c ****     #define OddEvenTimer__B_TIMER__TM_RISINGEDGE 0x04u
 597:Generated_Source\PSoC5/OddEvenTimer.c ****     #define OddEvenTimer__B_TIMER__TM_FALLINGEDGE 0x08u
 598:Generated_Source\PSoC5/OddEvenTimer.c ****     #define OddEvenTimer__B_TIMER__TM_EITHEREDGE 0x0Cu
 599:Generated_Source\PSoC5/OddEvenTimer.c ****     #define OddEvenTimer__B_TIMER__TM_SOFTWARE 0x10u
 600:Generated_Source\PSoC5/OddEvenTimer.c **** *
 601:Generated_Source\PSoC5/OddEvenTimer.c **** * Return:
 602:Generated_Source\PSoC5/OddEvenTimer.c **** *  void
 603:Generated_Source\PSoC5/OddEvenTimer.c **** *
 604:Generated_Source\PSoC5/OddEvenTimer.c **** *******************************************************************************/
 605:Generated_Source\PSoC5/OddEvenTimer.c **** void OddEvenTimer_SetTriggerMode(uint8 triggerMode) 
 606:Generated_Source\PSoC5/OddEvenTimer.c **** {
 607:Generated_Source\PSoC5/OddEvenTimer.c ****     /* This must only set to two bits of the control register associated */
 608:Generated_Source\PSoC5/OddEvenTimer.c ****     triggerMode &= OddEvenTimer_CTRL_TRIG_MODE_MASK;
 609:Generated_Source\PSoC5/OddEvenTimer.c **** 
 610:Generated_Source\PSoC5/OddEvenTimer.c ****     #if (!OddEvenTimer_UDB_CONTROL_REG_REMOVED)   /* Remove assignment if control register is remov
 611:Generated_Source\PSoC5/OddEvenTimer.c ****     
 612:Generated_Source\PSoC5/OddEvenTimer.c ****         /* Clear the Current Setting */
 613:Generated_Source\PSoC5/OddEvenTimer.c ****         OddEvenTimer_CONTROL &= ((uint8)(~OddEvenTimer_CTRL_TRIG_MODE_MASK));
 614:Generated_Source\PSoC5/OddEvenTimer.c **** 
 615:Generated_Source\PSoC5/OddEvenTimer.c ****         /* Write The New Setting */
 616:Generated_Source\PSoC5/OddEvenTimer.c ****         OddEvenTimer_CONTROL |= (triggerMode | OddEvenTimer__B_TIMER__TM_SOFTWARE);
 617:Generated_Source\PSoC5/OddEvenTimer.c ****     #endif /* Remove code section if control register is not used */
 618:Generated_Source\PSoC5/OddEvenTimer.c **** }
 619:Generated_Source\PSoC5/OddEvenTimer.c **** #endif /* Remove API if Trigger Mode is not Software Controlled */
 620:Generated_Source\PSoC5/OddEvenTimer.c **** 
 621:Generated_Source\PSoC5/OddEvenTimer.c **** #if (OddEvenTimer_EnableTriggerMode)
 622:Generated_Source\PSoC5/OddEvenTimer.c **** 
 623:Generated_Source\PSoC5/OddEvenTimer.c **** 
 624:Generated_Source\PSoC5/OddEvenTimer.c **** /*******************************************************************************
 625:Generated_Source\PSoC5/OddEvenTimer.c **** * Function Name: OddEvenTimer_EnableTrigger
 626:Generated_Source\PSoC5/OddEvenTimer.c **** ********************************************************************************
 627:Generated_Source\PSoC5/OddEvenTimer.c **** *
 628:Generated_Source\PSoC5/OddEvenTimer.c **** * Summary:
 629:Generated_Source\PSoC5/OddEvenTimer.c **** *  Sets the control bit enabling Hardware Trigger mode
 630:Generated_Source\PSoC5/OddEvenTimer.c **** *
 631:Generated_Source\PSoC5/OddEvenTimer.c **** * Parameters:
 632:Generated_Source\PSoC5/OddEvenTimer.c **** *  void
 633:Generated_Source\PSoC5/OddEvenTimer.c **** *
 634:Generated_Source\PSoC5/OddEvenTimer.c **** * Return:
 635:Generated_Source\PSoC5/OddEvenTimer.c **** *  void
 636:Generated_Source\PSoC5/OddEvenTimer.c **** *
 637:Generated_Source\PSoC5/OddEvenTimer.c **** *******************************************************************************/
ARM GAS  C:\Users\nkhedkar\AppData\Local\Temp\ccbIg4SS.s 			page 18


 638:Generated_Source\PSoC5/OddEvenTimer.c **** void OddEvenTimer_EnableTrigger(void) 
 639:Generated_Source\PSoC5/OddEvenTimer.c **** {
 640:Generated_Source\PSoC5/OddEvenTimer.c ****     #if (!OddEvenTimer_UDB_CONTROL_REG_REMOVED)   /* Remove assignment if control register is remov
 641:Generated_Source\PSoC5/OddEvenTimer.c ****         OddEvenTimer_CONTROL |= OddEvenTimer_CTRL_TRIG_EN;
 642:Generated_Source\PSoC5/OddEvenTimer.c ****     #endif /* Remove code section if control register is not used */
 643:Generated_Source\PSoC5/OddEvenTimer.c **** }
 644:Generated_Source\PSoC5/OddEvenTimer.c **** 
 645:Generated_Source\PSoC5/OddEvenTimer.c **** 
 646:Generated_Source\PSoC5/OddEvenTimer.c **** /*******************************************************************************
 647:Generated_Source\PSoC5/OddEvenTimer.c **** * Function Name: OddEvenTimer_DisableTrigger
 648:Generated_Source\PSoC5/OddEvenTimer.c **** ********************************************************************************
 649:Generated_Source\PSoC5/OddEvenTimer.c **** *
 650:Generated_Source\PSoC5/OddEvenTimer.c **** * Summary:
 651:Generated_Source\PSoC5/OddEvenTimer.c **** *  Clears the control bit enabling Hardware Trigger mode
 652:Generated_Source\PSoC5/OddEvenTimer.c **** *
 653:Generated_Source\PSoC5/OddEvenTimer.c **** * Parameters:
 654:Generated_Source\PSoC5/OddEvenTimer.c **** *  void
 655:Generated_Source\PSoC5/OddEvenTimer.c **** *
 656:Generated_Source\PSoC5/OddEvenTimer.c **** * Return:
 657:Generated_Source\PSoC5/OddEvenTimer.c **** *  void
 658:Generated_Source\PSoC5/OddEvenTimer.c **** *
 659:Generated_Source\PSoC5/OddEvenTimer.c **** *******************************************************************************/
 660:Generated_Source\PSoC5/OddEvenTimer.c **** void OddEvenTimer_DisableTrigger(void) 
 661:Generated_Source\PSoC5/OddEvenTimer.c **** {
 662:Generated_Source\PSoC5/OddEvenTimer.c ****     #if (!OddEvenTimer_UDB_CONTROL_REG_REMOVED )   /* Remove assignment if control register is remo
 663:Generated_Source\PSoC5/OddEvenTimer.c ****         OddEvenTimer_CONTROL &= ((uint8)(~OddEvenTimer_CTRL_TRIG_EN));
 664:Generated_Source\PSoC5/OddEvenTimer.c ****     #endif /* Remove code section if control register is not used */
 665:Generated_Source\PSoC5/OddEvenTimer.c **** }
 666:Generated_Source\PSoC5/OddEvenTimer.c **** #endif /* Remove API is Trigger Mode is set to None */
 667:Generated_Source\PSoC5/OddEvenTimer.c **** 
 668:Generated_Source\PSoC5/OddEvenTimer.c **** #if(OddEvenTimer_InterruptOnCaptureCount)
 669:Generated_Source\PSoC5/OddEvenTimer.c **** 
 670:Generated_Source\PSoC5/OddEvenTimer.c **** 
 671:Generated_Source\PSoC5/OddEvenTimer.c **** /*******************************************************************************
 672:Generated_Source\PSoC5/OddEvenTimer.c **** * Function Name: OddEvenTimer_SetInterruptCount
 673:Generated_Source\PSoC5/OddEvenTimer.c **** ********************************************************************************
 674:Generated_Source\PSoC5/OddEvenTimer.c **** *
 675:Generated_Source\PSoC5/OddEvenTimer.c **** * Summary:
 676:Generated_Source\PSoC5/OddEvenTimer.c **** *  This function sets the capture count before an interrupt is triggered.
 677:Generated_Source\PSoC5/OddEvenTimer.c **** *
 678:Generated_Source\PSoC5/OddEvenTimer.c **** * Parameters:
 679:Generated_Source\PSoC5/OddEvenTimer.c **** *  interruptCount:  A value between 0 and 3 is valid.  If the value is 0, then
 680:Generated_Source\PSoC5/OddEvenTimer.c **** *                   an interrupt will occur each time a capture occurs.
 681:Generated_Source\PSoC5/OddEvenTimer.c **** *                   A value of 1 to 3 will cause the interrupt
 682:Generated_Source\PSoC5/OddEvenTimer.c **** *                   to delay by the same number of captures.
 683:Generated_Source\PSoC5/OddEvenTimer.c **** *
 684:Generated_Source\PSoC5/OddEvenTimer.c **** * Return:
 685:Generated_Source\PSoC5/OddEvenTimer.c **** *  void
 686:Generated_Source\PSoC5/OddEvenTimer.c **** *
 687:Generated_Source\PSoC5/OddEvenTimer.c **** *******************************************************************************/
 688:Generated_Source\PSoC5/OddEvenTimer.c **** void OddEvenTimer_SetInterruptCount(uint8 interruptCount) 
 689:Generated_Source\PSoC5/OddEvenTimer.c **** {
 690:Generated_Source\PSoC5/OddEvenTimer.c ****     /* This must only set to two bits of the control register associated */
 691:Generated_Source\PSoC5/OddEvenTimer.c ****     interruptCount &= OddEvenTimer_CTRL_INTCNT_MASK;
 692:Generated_Source\PSoC5/OddEvenTimer.c **** 
 693:Generated_Source\PSoC5/OddEvenTimer.c ****     #if (!OddEvenTimer_UDB_CONTROL_REG_REMOVED)
 694:Generated_Source\PSoC5/OddEvenTimer.c ****         /* Clear the Current Setting */
ARM GAS  C:\Users\nkhedkar\AppData\Local\Temp\ccbIg4SS.s 			page 19


 695:Generated_Source\PSoC5/OddEvenTimer.c ****         OddEvenTimer_CONTROL &= ((uint8)(~OddEvenTimer_CTRL_INTCNT_MASK));
 696:Generated_Source\PSoC5/OddEvenTimer.c ****         /* Write The New Setting */
 697:Generated_Source\PSoC5/OddEvenTimer.c ****         OddEvenTimer_CONTROL |= interruptCount;
 698:Generated_Source\PSoC5/OddEvenTimer.c ****     #endif /* (!OddEvenTimer_UDB_CONTROL_REG_REMOVED) */
 699:Generated_Source\PSoC5/OddEvenTimer.c **** }
 700:Generated_Source\PSoC5/OddEvenTimer.c **** #endif /* OddEvenTimer_InterruptOnCaptureCount */
 701:Generated_Source\PSoC5/OddEvenTimer.c **** 
 702:Generated_Source\PSoC5/OddEvenTimer.c **** 
 703:Generated_Source\PSoC5/OddEvenTimer.c **** #if (OddEvenTimer_UsingHWCaptureCounter)
 704:Generated_Source\PSoC5/OddEvenTimer.c **** 
 705:Generated_Source\PSoC5/OddEvenTimer.c **** 
 706:Generated_Source\PSoC5/OddEvenTimer.c **** /*******************************************************************************
 707:Generated_Source\PSoC5/OddEvenTimer.c **** * Function Name: OddEvenTimer_SetCaptureCount
 708:Generated_Source\PSoC5/OddEvenTimer.c **** ********************************************************************************
 709:Generated_Source\PSoC5/OddEvenTimer.c **** *
 710:Generated_Source\PSoC5/OddEvenTimer.c **** * Summary:
 711:Generated_Source\PSoC5/OddEvenTimer.c **** *  This function sets the capture count
 712:Generated_Source\PSoC5/OddEvenTimer.c **** *
 713:Generated_Source\PSoC5/OddEvenTimer.c **** * Parameters:
 714:Generated_Source\PSoC5/OddEvenTimer.c **** *  captureCount: A value between 2 and 127 inclusive is valid.  A value of 1
 715:Generated_Source\PSoC5/OddEvenTimer.c **** *                to 127 will cause the interrupt to delay by the same number of
 716:Generated_Source\PSoC5/OddEvenTimer.c **** *                captures.
 717:Generated_Source\PSoC5/OddEvenTimer.c **** *
 718:Generated_Source\PSoC5/OddEvenTimer.c **** * Return:
 719:Generated_Source\PSoC5/OddEvenTimer.c **** *  void
 720:Generated_Source\PSoC5/OddEvenTimer.c **** *
 721:Generated_Source\PSoC5/OddEvenTimer.c **** *******************************************************************************/
 722:Generated_Source\PSoC5/OddEvenTimer.c **** void OddEvenTimer_SetCaptureCount(uint8 captureCount) 
 723:Generated_Source\PSoC5/OddEvenTimer.c **** {
 333              		.loc 1 723 0
 334              		.cfi_startproc
 335              		@ args = 0, pretend = 0, frame = 0
 336              		@ frame_needed = 0, uses_anonymous_args = 0
 337              		@ link register save eliminated.
 338              	.LVL4:
 724:Generated_Source\PSoC5/OddEvenTimer.c ****     OddEvenTimer_CAP_COUNT = captureCount;
 339              		.loc 1 724 0
 340 0000 014B     		ldr	r3, .L38
 341 0002 1870     		strb	r0, [r3]
 342 0004 7047     		bx	lr
 343              	.L39:
 344 0006 00BF     		.align	2
 345              	.L38:
 346 0008 8C640040 		.word	1073767564
 347              		.cfi_endproc
 348              	.LFE14:
 349              		.size	OddEvenTimer_SetCaptureCount, .-OddEvenTimer_SetCaptureCount
 350              		.section	.text.OddEvenTimer_ReadCaptureCount,"ax",%progbits
 351              		.align	2
 352              		.global	OddEvenTimer_ReadCaptureCount
 353              		.thumb
 354              		.thumb_func
 355              		.type	OddEvenTimer_ReadCaptureCount, %function
 356              	OddEvenTimer_ReadCaptureCount:
 357              	.LFB15:
 725:Generated_Source\PSoC5/OddEvenTimer.c **** }
 726:Generated_Source\PSoC5/OddEvenTimer.c **** 
ARM GAS  C:\Users\nkhedkar\AppData\Local\Temp\ccbIg4SS.s 			page 20


 727:Generated_Source\PSoC5/OddEvenTimer.c **** 
 728:Generated_Source\PSoC5/OddEvenTimer.c **** /*******************************************************************************
 729:Generated_Source\PSoC5/OddEvenTimer.c **** * Function Name: OddEvenTimer_ReadCaptureCount
 730:Generated_Source\PSoC5/OddEvenTimer.c **** ********************************************************************************
 731:Generated_Source\PSoC5/OddEvenTimer.c **** *
 732:Generated_Source\PSoC5/OddEvenTimer.c **** * Summary:
 733:Generated_Source\PSoC5/OddEvenTimer.c **** *  This function reads the capture count setting
 734:Generated_Source\PSoC5/OddEvenTimer.c **** *
 735:Generated_Source\PSoC5/OddEvenTimer.c **** * Parameters:
 736:Generated_Source\PSoC5/OddEvenTimer.c **** *  void
 737:Generated_Source\PSoC5/OddEvenTimer.c **** *
 738:Generated_Source\PSoC5/OddEvenTimer.c **** * Return:
 739:Generated_Source\PSoC5/OddEvenTimer.c **** *  Returns the Capture Count Setting
 740:Generated_Source\PSoC5/OddEvenTimer.c **** *
 741:Generated_Source\PSoC5/OddEvenTimer.c **** *******************************************************************************/
 742:Generated_Source\PSoC5/OddEvenTimer.c **** uint8 OddEvenTimer_ReadCaptureCount(void) 
 743:Generated_Source\PSoC5/OddEvenTimer.c **** {
 358              		.loc 1 743 0
 359              		.cfi_startproc
 360              		@ args = 0, pretend = 0, frame = 0
 361              		@ frame_needed = 0, uses_anonymous_args = 0
 362              		@ link register save eliminated.
 744:Generated_Source\PSoC5/OddEvenTimer.c ****     return ((uint8)OddEvenTimer_CAP_COUNT);
 363              		.loc 1 744 0
 364 0000 014B     		ldr	r3, .L41
 365 0002 1878     		ldrb	r0, [r3]	@ zero_extendqisi2
 745:Generated_Source\PSoC5/OddEvenTimer.c **** }
 366              		.loc 1 745 0
 367 0004 7047     		bx	lr
 368              	.L42:
 369 0006 00BF     		.align	2
 370              	.L41:
 371 0008 8C640040 		.word	1073767564
 372              		.cfi_endproc
 373              	.LFE15:
 374              		.size	OddEvenTimer_ReadCaptureCount, .-OddEvenTimer_ReadCaptureCount
 375              		.section	.text.OddEvenTimer_ClearFIFO,"ax",%progbits
 376              		.align	2
 377              		.global	OddEvenTimer_ClearFIFO
 378              		.thumb
 379              		.thumb_func
 380              		.type	OddEvenTimer_ClearFIFO, %function
 381              	OddEvenTimer_ClearFIFO:
 382              	.LFB16:
 746:Generated_Source\PSoC5/OddEvenTimer.c **** #endif /* OddEvenTimer_UsingHWCaptureCounter */
 747:Generated_Source\PSoC5/OddEvenTimer.c **** 
 748:Generated_Source\PSoC5/OddEvenTimer.c **** 
 749:Generated_Source\PSoC5/OddEvenTimer.c **** /*******************************************************************************
 750:Generated_Source\PSoC5/OddEvenTimer.c **** * Function Name: OddEvenTimer_ClearFIFO
 751:Generated_Source\PSoC5/OddEvenTimer.c **** ********************************************************************************
 752:Generated_Source\PSoC5/OddEvenTimer.c **** *
 753:Generated_Source\PSoC5/OddEvenTimer.c **** * Summary:
 754:Generated_Source\PSoC5/OddEvenTimer.c **** *  This function clears all capture data from the capture FIFO
 755:Generated_Source\PSoC5/OddEvenTimer.c **** *
 756:Generated_Source\PSoC5/OddEvenTimer.c **** * Parameters:
 757:Generated_Source\PSoC5/OddEvenTimer.c **** *  void
 758:Generated_Source\PSoC5/OddEvenTimer.c **** *
ARM GAS  C:\Users\nkhedkar\AppData\Local\Temp\ccbIg4SS.s 			page 21


 759:Generated_Source\PSoC5/OddEvenTimer.c **** * Return:
 760:Generated_Source\PSoC5/OddEvenTimer.c **** *  void
 761:Generated_Source\PSoC5/OddEvenTimer.c **** *
 762:Generated_Source\PSoC5/OddEvenTimer.c **** *******************************************************************************/
 763:Generated_Source\PSoC5/OddEvenTimer.c **** void OddEvenTimer_ClearFIFO(void) 
 764:Generated_Source\PSoC5/OddEvenTimer.c **** {
 383              		.loc 1 764 0
 384              		.cfi_startproc
 385              		@ args = 0, pretend = 0, frame = 0
 386              		@ frame_needed = 0, uses_anonymous_args = 0
 387 0000 08B5     		push	{r3, lr}
 388              		.cfi_def_cfa_offset 8
 389              		.cfi_offset 3, -8
 390              		.cfi_offset 14, -4
 765:Generated_Source\PSoC5/OddEvenTimer.c ****     while(0u != (OddEvenTimer_ReadStatusRegister() & OddEvenTimer_STATUS_FIFONEMP))
 391              		.loc 1 765 0
 392 0002 01E0     		b	.L44
 393              	.L45:
 766:Generated_Source\PSoC5/OddEvenTimer.c ****     {
 767:Generated_Source\PSoC5/OddEvenTimer.c ****         (void)OddEvenTimer_ReadCapture();
 394              		.loc 1 767 0
 395 0004 FFF7FEFF 		bl	OddEvenTimer_ReadCapture
 396              	.LVL5:
 397              	.L44:
 765:Generated_Source\PSoC5/OddEvenTimer.c ****     while(0u != (OddEvenTimer_ReadStatusRegister() & OddEvenTimer_STATUS_FIFONEMP))
 398              		.loc 1 765 0
 399 0008 FFF7FEFF 		bl	OddEvenTimer_ReadStatusRegister
 400              	.LVL6:
 401 000c 10F0080F 		tst	r0, #8
 402 0010 F8D1     		bne	.L45
 768:Generated_Source\PSoC5/OddEvenTimer.c ****     }
 769:Generated_Source\PSoC5/OddEvenTimer.c **** }
 403              		.loc 1 769 0
 404 0012 08BD     		pop	{r3, pc}
 405              		.cfi_endproc
 406              	.LFE16:
 407              		.size	OddEvenTimer_ClearFIFO, .-OddEvenTimer_ClearFIFO
 408              		.section	.text.OddEvenTimer_Init,"ax",%progbits
 409              		.align	2
 410              		.global	OddEvenTimer_Init
 411              		.thumb
 412              		.thumb_func
 413              		.type	OddEvenTimer_Init, %function
 414              	OddEvenTimer_Init:
 415              	.LFB0:
  44:Generated_Source\PSoC5/OddEvenTimer.c ****     #if(!OddEvenTimer_UsingFixedFunction)
 416              		.loc 1 44 0
 417              		.cfi_startproc
 418              		@ args = 0, pretend = 0, frame = 0
 419              		@ frame_needed = 0, uses_anonymous_args = 0
 420 0000 08B5     		push	{r3, lr}
 421              		.cfi_def_cfa_offset 8
 422              		.cfi_offset 3, -8
 423              		.cfi_offset 14, -4
 118:Generated_Source\PSoC5/OddEvenTimer.c ****     OddEvenTimer_WriteCounter(OddEvenTimer_INIT_PERIOD);
 424              		.loc 1 118 0
 425 0002 4FF6FF70 		movw	r0, #65535
ARM GAS  C:\Users\nkhedkar\AppData\Local\Temp\ccbIg4SS.s 			page 22


 426 0006 FFF7FEFF 		bl	OddEvenTimer_WritePeriod
 427              	.LVL7:
 119:Generated_Source\PSoC5/OddEvenTimer.c **** 
 428              		.loc 1 119 0
 429 000a 4FF6FF70 		movw	r0, #65535
 430 000e FFF7FEFF 		bl	OddEvenTimer_WriteCounter
 431              	.LVL8:
 122:Generated_Source\PSoC5/OddEvenTimer.c ****         OddEvenTimer_SetCaptureCount(OddEvenTimer_INIT_CAPTURE_COUNT);
 432              		.loc 1 122 0
 433 0012 0B4A     		ldr	r2, .L49
 434 0014 1378     		ldrb	r3, [r2]	@ zero_extendqisi2
 435 0016 43F02003 		orr	r3, r3, #32
 436 001a 1370     		strb	r3, [r2]
 123:Generated_Source\PSoC5/OddEvenTimer.c ****     #endif /* Configure capture counter value */
 437              		.loc 1 123 0
 438 001c 2320     		movs	r0, #35
 439 001e FFF7FEFF 		bl	OddEvenTimer_SetCaptureCount
 440              	.LVL9:
 142:Generated_Source\PSoC5/OddEvenTimer.c **** 
 441              		.loc 1 142 0
 442 0022 FFF7FEFF 		bl	CyEnterCriticalSection
 443              	.LVL10:
 145:Generated_Source\PSoC5/OddEvenTimer.c **** 
 444              		.loc 1 145 0
 445 0026 074A     		ldr	r2, .L49+4
 446 0028 1378     		ldrb	r3, [r2]	@ zero_extendqisi2
 447 002a 43F01003 		orr	r3, r3, #16
 448 002e 1370     		strb	r3, [r2]
 148:Generated_Source\PSoC5/OddEvenTimer.c **** 
 449              		.loc 1 148 0
 450 0030 FFF7FEFF 		bl	CyExitCriticalSection
 451              	.LVL11:
 159:Generated_Source\PSoC5/OddEvenTimer.c ****     #endif /* Configure additional features of UDB implementation */
 452              		.loc 1 159 0
 453 0034 FFF7FEFF 		bl	OddEvenTimer_ClearFIFO
 454              	.LVL12:
 162:Generated_Source\PSoC5/OddEvenTimer.c **** }
 455              		.loc 1 162 0
 456 0038 0020     		movs	r0, #0
 457 003a FFF7FEFF 		bl	OddEvenTimer_SetInterruptMode
 458              	.LVL13:
 459 003e 08BD     		pop	{r3, pc}
 460              	.L50:
 461              		.align	2
 462              	.L49:
 463 0040 9C640040 		.word	1073767580
 464 0044 9E640040 		.word	1073767582
 465              		.cfi_endproc
 466              	.LFE0:
 467              		.size	OddEvenTimer_Init, .-OddEvenTimer_Init
 468              		.section	.text.OddEvenTimer_Start,"ax",%progbits
 469              		.align	2
 470              		.global	OddEvenTimer_Start
 471              		.thumb
 472              		.thumb_func
 473              		.type	OddEvenTimer_Start, %function
 474              	OddEvenTimer_Start:
ARM GAS  C:\Users\nkhedkar\AppData\Local\Temp\ccbIg4SS.s 			page 23


 475              	.LFB2:
 216:Generated_Source\PSoC5/OddEvenTimer.c ****     if(OddEvenTimer_initVar == 0u)
 476              		.loc 1 216 0
 477              		.cfi_startproc
 478              		@ args = 0, pretend = 0, frame = 0
 479              		@ frame_needed = 0, uses_anonymous_args = 0
 480 0000 08B5     		push	{r3, lr}
 481              		.cfi_def_cfa_offset 8
 482              		.cfi_offset 3, -8
 483              		.cfi_offset 14, -4
 217:Generated_Source\PSoC5/OddEvenTimer.c ****     {
 484              		.loc 1 217 0
 485 0002 054B     		ldr	r3, .L54
 486 0004 1B78     		ldrb	r3, [r3]	@ zero_extendqisi2
 487 0006 23B9     		cbnz	r3, .L52
 219:Generated_Source\PSoC5/OddEvenTimer.c **** 
 488              		.loc 1 219 0
 489 0008 FFF7FEFF 		bl	OddEvenTimer_Init
 490              	.LVL14:
 221:Generated_Source\PSoC5/OddEvenTimer.c ****     }
 491              		.loc 1 221 0
 492 000c 0122     		movs	r2, #1
 493 000e 024B     		ldr	r3, .L54
 494 0010 1A70     		strb	r2, [r3]
 495              	.L52:
 225:Generated_Source\PSoC5/OddEvenTimer.c **** }
 496              		.loc 1 225 0
 497 0012 FFF7FEFF 		bl	OddEvenTimer_Enable
 498              	.LVL15:
 499 0016 08BD     		pop	{r3, pc}
 500              	.L55:
 501              		.align	2
 502              	.L54:
 503 0018 00000000 		.word	.LANCHOR0
 504              		.cfi_endproc
 505              	.LFE2:
 506              		.size	OddEvenTimer_Start, .-OddEvenTimer_Start
 507              		.global	OddEvenTimer_initVar
 508              		.bss
 509              		.set	.LANCHOR0,. + 0
 510              		.type	OddEvenTimer_initVar, %object
 511              		.size	OddEvenTimer_initVar, 1
 512              	OddEvenTimer_initVar:
 513 0000 00       		.space	1
 514              		.text
 515              	.Letext0:
 516              		.file 2 "Generated_Source\\PSoC5\\cytypes.h"
 517              		.file 3 "Generated_Source\\PSoC5\\CyLib.h"