ARM GAS  C:\Users\nkhedkar\AppData\Local\Temp\ccDmXlH9.s 			page 1


   1              		.syntax unified
   2              		.cpu cortex-m3
   3              		.fpu softvfp
   4              		.eabi_attribute 20, 1
   5              		.eabi_attribute 21, 1
   6              		.eabi_attribute 23, 3
   7              		.eabi_attribute 24, 1
   8              		.eabi_attribute 25, 1
   9              		.eabi_attribute 26, 1
  10              		.eabi_attribute 30, 1
  11              		.eabi_attribute 34, 1
  12              		.eabi_attribute 18, 4
  13              		.thumb
  14              		.syntax unified
  15              		.file	"OddEvenTimer_PM.c"
  16              		.text
  17              	.Ltext0:
  18              		.cfi_sections	.debug_frame
  19              		.section	.text.OddEvenTimer_SaveConfig,"ax",%progbits
  20              		.align	2
  21              		.global	OddEvenTimer_SaveConfig
  22              		.thumb
  23              		.thumb_func
  24              		.type	OddEvenTimer_SaveConfig, %function
  25              	OddEvenTimer_SaveConfig:
  26              	.LFB0:
  27              		.file 1 "Generated_Source\\PSoC5\\OddEvenTimer_PM.c"
   1:Generated_Source\PSoC5/OddEvenTimer_PM.c **** /*******************************************************************************
   2:Generated_Source\PSoC5/OddEvenTimer_PM.c **** * File Name: OddEvenTimer_PM.c
   3:Generated_Source\PSoC5/OddEvenTimer_PM.c **** * Version 2.80
   4:Generated_Source\PSoC5/OddEvenTimer_PM.c **** *
   5:Generated_Source\PSoC5/OddEvenTimer_PM.c **** *  Description:
   6:Generated_Source\PSoC5/OddEvenTimer_PM.c **** *     This file provides the power management source code to API for the
   7:Generated_Source\PSoC5/OddEvenTimer_PM.c **** *     Timer.
   8:Generated_Source\PSoC5/OddEvenTimer_PM.c **** *
   9:Generated_Source\PSoC5/OddEvenTimer_PM.c **** *   Note:
  10:Generated_Source\PSoC5/OddEvenTimer_PM.c **** *     None
  11:Generated_Source\PSoC5/OddEvenTimer_PM.c **** *
  12:Generated_Source\PSoC5/OddEvenTimer_PM.c **** *******************************************************************************
  13:Generated_Source\PSoC5/OddEvenTimer_PM.c **** * Copyright 2008-2017, Cypress Semiconductor Corporation.  All rights reserved.
  14:Generated_Source\PSoC5/OddEvenTimer_PM.c **** * You may use this file only in accordance with the license, terms, conditions,
  15:Generated_Source\PSoC5/OddEvenTimer_PM.c **** * disclaimers, and limitations in the end user license agreement accompanying
  16:Generated_Source\PSoC5/OddEvenTimer_PM.c **** * the software package with which this file was provided.
  17:Generated_Source\PSoC5/OddEvenTimer_PM.c **** ********************************************************************************/
  18:Generated_Source\PSoC5/OddEvenTimer_PM.c **** 
  19:Generated_Source\PSoC5/OddEvenTimer_PM.c **** #include "OddEvenTimer.h"
  20:Generated_Source\PSoC5/OddEvenTimer_PM.c **** 
  21:Generated_Source\PSoC5/OddEvenTimer_PM.c **** static OddEvenTimer_backupStruct OddEvenTimer_backup;
  22:Generated_Source\PSoC5/OddEvenTimer_PM.c **** 
  23:Generated_Source\PSoC5/OddEvenTimer_PM.c **** 
  24:Generated_Source\PSoC5/OddEvenTimer_PM.c **** /*******************************************************************************
  25:Generated_Source\PSoC5/OddEvenTimer_PM.c **** * Function Name: OddEvenTimer_SaveConfig
  26:Generated_Source\PSoC5/OddEvenTimer_PM.c **** ********************************************************************************
  27:Generated_Source\PSoC5/OddEvenTimer_PM.c **** *
  28:Generated_Source\PSoC5/OddEvenTimer_PM.c **** * Summary:
  29:Generated_Source\PSoC5/OddEvenTimer_PM.c **** *     Save the current user configuration
  30:Generated_Source\PSoC5/OddEvenTimer_PM.c **** *
ARM GAS  C:\Users\nkhedkar\AppData\Local\Temp\ccDmXlH9.s 			page 2


  31:Generated_Source\PSoC5/OddEvenTimer_PM.c **** * Parameters:
  32:Generated_Source\PSoC5/OddEvenTimer_PM.c **** *  void
  33:Generated_Source\PSoC5/OddEvenTimer_PM.c **** *
  34:Generated_Source\PSoC5/OddEvenTimer_PM.c **** * Return:
  35:Generated_Source\PSoC5/OddEvenTimer_PM.c **** *  void
  36:Generated_Source\PSoC5/OddEvenTimer_PM.c **** *
  37:Generated_Source\PSoC5/OddEvenTimer_PM.c **** * Global variables:
  38:Generated_Source\PSoC5/OddEvenTimer_PM.c **** *  OddEvenTimer_backup:  Variables of this global structure are modified to
  39:Generated_Source\PSoC5/OddEvenTimer_PM.c **** *  store the values of non retention configuration registers when Sleep() API is
  40:Generated_Source\PSoC5/OddEvenTimer_PM.c **** *  called.
  41:Generated_Source\PSoC5/OddEvenTimer_PM.c **** *
  42:Generated_Source\PSoC5/OddEvenTimer_PM.c **** *******************************************************************************/
  43:Generated_Source\PSoC5/OddEvenTimer_PM.c **** void OddEvenTimer_SaveConfig(void) 
  44:Generated_Source\PSoC5/OddEvenTimer_PM.c **** {
  28              		.loc 1 44 0
  29              		.cfi_startproc
  30              		@ args = 0, pretend = 0, frame = 0
  31              		@ frame_needed = 0, uses_anonymous_args = 0
  32 0000 10B5     		push	{r4, lr}
  33              		.cfi_def_cfa_offset 8
  34              		.cfi_offset 4, -8
  35              		.cfi_offset 14, -4
  45:Generated_Source\PSoC5/OddEvenTimer_PM.c ****     #if (!OddEvenTimer_UsingFixedFunction)
  46:Generated_Source\PSoC5/OddEvenTimer_PM.c ****         OddEvenTimer_backup.TimerUdb = OddEvenTimer_ReadCounter();
  36              		.loc 1 46 0
  37 0002 FFF7FEFF 		bl	OddEvenTimer_ReadCounter
  38              	.LVL0:
  39 0006 064C     		ldr	r4, .L3
  40 0008 6060     		str	r0, [r4, #4]
  47:Generated_Source\PSoC5/OddEvenTimer_PM.c ****         OddEvenTimer_backup.InterruptMaskValue = OddEvenTimer_STATUS_MASK;
  41              		.loc 1 47 0
  42 000a 064B     		ldr	r3, .L3+4
  43 000c 1B78     		ldrb	r3, [r3]	@ zero_extendqisi2
  44 000e 2372     		strb	r3, [r4, #8]
  48:Generated_Source\PSoC5/OddEvenTimer_PM.c ****         #if (OddEvenTimer_UsingHWCaptureCounter)
  49:Generated_Source\PSoC5/OddEvenTimer_PM.c ****             OddEvenTimer_backup.TimerCaptureCounter = OddEvenTimer_ReadCaptureCount();
  45              		.loc 1 49 0
  46 0010 FFF7FEFF 		bl	OddEvenTimer_ReadCaptureCount
  47              	.LVL1:
  48 0014 6072     		strb	r0, [r4, #9]
  50:Generated_Source\PSoC5/OddEvenTimer_PM.c ****         #endif /* Back Up capture counter register  */
  51:Generated_Source\PSoC5/OddEvenTimer_PM.c **** 
  52:Generated_Source\PSoC5/OddEvenTimer_PM.c ****         #if(!OddEvenTimer_UDB_CONTROL_REG_REMOVED)
  53:Generated_Source\PSoC5/OddEvenTimer_PM.c ****             OddEvenTimer_backup.TimerControlRegister = OddEvenTimer_ReadControlRegister();
  49              		.loc 1 53 0
  50 0016 FFF7FEFF 		bl	OddEvenTimer_ReadControlRegister
  51              	.LVL2:
  52 001a A072     		strb	r0, [r4, #10]
  53 001c 10BD     		pop	{r4, pc}
  54              	.L4:
  55 001e 00BF     		.align	2
  56              	.L3:
  57 0020 00000000 		.word	.LANCHOR0
  58 0024 8E640040 		.word	1073767566
  59              		.cfi_endproc
  60              	.LFE0:
  61              		.size	OddEvenTimer_SaveConfig, .-OddEvenTimer_SaveConfig
ARM GAS  C:\Users\nkhedkar\AppData\Local\Temp\ccDmXlH9.s 			page 3


  62              		.section	.text.OddEvenTimer_RestoreConfig,"ax",%progbits
  63              		.align	2
  64              		.global	OddEvenTimer_RestoreConfig
  65              		.thumb
  66              		.thumb_func
  67              		.type	OddEvenTimer_RestoreConfig, %function
  68              	OddEvenTimer_RestoreConfig:
  69              	.LFB1:
  54:Generated_Source\PSoC5/OddEvenTimer_PM.c ****         #endif /* Backup the enable state of the Timer component */
  55:Generated_Source\PSoC5/OddEvenTimer_PM.c ****     #endif /* Backup non retention registers in UDB implementation. All fixed function registers ar
  56:Generated_Source\PSoC5/OddEvenTimer_PM.c **** }
  57:Generated_Source\PSoC5/OddEvenTimer_PM.c **** 
  58:Generated_Source\PSoC5/OddEvenTimer_PM.c **** 
  59:Generated_Source\PSoC5/OddEvenTimer_PM.c **** /*******************************************************************************
  60:Generated_Source\PSoC5/OddEvenTimer_PM.c **** * Function Name: OddEvenTimer_RestoreConfig
  61:Generated_Source\PSoC5/OddEvenTimer_PM.c **** ********************************************************************************
  62:Generated_Source\PSoC5/OddEvenTimer_PM.c **** *
  63:Generated_Source\PSoC5/OddEvenTimer_PM.c **** * Summary:
  64:Generated_Source\PSoC5/OddEvenTimer_PM.c **** *  Restores the current user configuration.
  65:Generated_Source\PSoC5/OddEvenTimer_PM.c **** *
  66:Generated_Source\PSoC5/OddEvenTimer_PM.c **** * Parameters:
  67:Generated_Source\PSoC5/OddEvenTimer_PM.c **** *  void
  68:Generated_Source\PSoC5/OddEvenTimer_PM.c **** *
  69:Generated_Source\PSoC5/OddEvenTimer_PM.c **** * Return:
  70:Generated_Source\PSoC5/OddEvenTimer_PM.c **** *  void
  71:Generated_Source\PSoC5/OddEvenTimer_PM.c **** *
  72:Generated_Source\PSoC5/OddEvenTimer_PM.c **** * Global variables:
  73:Generated_Source\PSoC5/OddEvenTimer_PM.c **** *  OddEvenTimer_backup:  Variables of this global structure are used to
  74:Generated_Source\PSoC5/OddEvenTimer_PM.c **** *  restore the values of non retention registers on wakeup from sleep mode.
  75:Generated_Source\PSoC5/OddEvenTimer_PM.c **** *
  76:Generated_Source\PSoC5/OddEvenTimer_PM.c **** *******************************************************************************/
  77:Generated_Source\PSoC5/OddEvenTimer_PM.c **** void OddEvenTimer_RestoreConfig(void) 
  78:Generated_Source\PSoC5/OddEvenTimer_PM.c **** {   
  70              		.loc 1 78 0
  71              		.cfi_startproc
  72              		@ args = 0, pretend = 0, frame = 0
  73              		@ frame_needed = 0, uses_anonymous_args = 0
  74 0000 10B5     		push	{r4, lr}
  75              		.cfi_def_cfa_offset 8
  76              		.cfi_offset 4, -8
  77              		.cfi_offset 14, -4
  79:Generated_Source\PSoC5/OddEvenTimer_PM.c ****     #if (!OddEvenTimer_UsingFixedFunction)
  80:Generated_Source\PSoC5/OddEvenTimer_PM.c **** 
  81:Generated_Source\PSoC5/OddEvenTimer_PM.c ****         OddEvenTimer_WriteCounter(OddEvenTimer_backup.TimerUdb);
  78              		.loc 1 81 0
  79 0002 074C     		ldr	r4, .L7
  80 0004 6068     		ldr	r0, [r4, #4]
  81 0006 FFF7FEFF 		bl	OddEvenTimer_WriteCounter
  82              	.LVL3:
  82:Generated_Source\PSoC5/OddEvenTimer_PM.c ****         OddEvenTimer_STATUS_MASK =OddEvenTimer_backup.InterruptMaskValue;
  83              		.loc 1 82 0
  84 000a 227A     		ldrb	r2, [r4, #8]	@ zero_extendqisi2
  85 000c 054B     		ldr	r3, .L7+4
  86 000e 1A70     		strb	r2, [r3]
  83:Generated_Source\PSoC5/OddEvenTimer_PM.c ****         #if (OddEvenTimer_UsingHWCaptureCounter)
  84:Generated_Source\PSoC5/OddEvenTimer_PM.c ****             OddEvenTimer_SetCaptureCount(OddEvenTimer_backup.TimerCaptureCounter);
  87              		.loc 1 84 0
ARM GAS  C:\Users\nkhedkar\AppData\Local\Temp\ccDmXlH9.s 			page 4


  88 0010 607A     		ldrb	r0, [r4, #9]	@ zero_extendqisi2
  89 0012 FFF7FEFF 		bl	OddEvenTimer_SetCaptureCount
  90              	.LVL4:
  85:Generated_Source\PSoC5/OddEvenTimer_PM.c ****         #endif /* Restore Capture counter register*/
  86:Generated_Source\PSoC5/OddEvenTimer_PM.c **** 
  87:Generated_Source\PSoC5/OddEvenTimer_PM.c ****         #if(!OddEvenTimer_UDB_CONTROL_REG_REMOVED)
  88:Generated_Source\PSoC5/OddEvenTimer_PM.c ****             OddEvenTimer_WriteControlRegister(OddEvenTimer_backup.TimerControlRegister);
  91              		.loc 1 88 0
  92 0016 A07A     		ldrb	r0, [r4, #10]	@ zero_extendqisi2
  93 0018 FFF7FEFF 		bl	OddEvenTimer_WriteControlRegister
  94              	.LVL5:
  95 001c 10BD     		pop	{r4, pc}
  96              	.L8:
  97 001e 00BF     		.align	2
  98              	.L7:
  99 0020 00000000 		.word	.LANCHOR0
 100 0024 8E640040 		.word	1073767566
 101              		.cfi_endproc
 102              	.LFE1:
 103              		.size	OddEvenTimer_RestoreConfig, .-OddEvenTimer_RestoreConfig
 104              		.section	.text.OddEvenTimer_Sleep,"ax",%progbits
 105              		.align	2
 106              		.global	OddEvenTimer_Sleep
 107              		.thumb
 108              		.thumb_func
 109              		.type	OddEvenTimer_Sleep, %function
 110              	OddEvenTimer_Sleep:
 111              	.LFB2:
  89:Generated_Source\PSoC5/OddEvenTimer_PM.c ****         #endif /* Restore the enable state of the Timer component */
  90:Generated_Source\PSoC5/OddEvenTimer_PM.c ****     #endif /* Restore non retention registers in the UDB implementation only */
  91:Generated_Source\PSoC5/OddEvenTimer_PM.c **** }
  92:Generated_Source\PSoC5/OddEvenTimer_PM.c **** 
  93:Generated_Source\PSoC5/OddEvenTimer_PM.c **** 
  94:Generated_Source\PSoC5/OddEvenTimer_PM.c **** /*******************************************************************************
  95:Generated_Source\PSoC5/OddEvenTimer_PM.c **** * Function Name: OddEvenTimer_Sleep
  96:Generated_Source\PSoC5/OddEvenTimer_PM.c **** ********************************************************************************
  97:Generated_Source\PSoC5/OddEvenTimer_PM.c **** *
  98:Generated_Source\PSoC5/OddEvenTimer_PM.c **** * Summary:
  99:Generated_Source\PSoC5/OddEvenTimer_PM.c **** *     Stop and Save the user configuration
 100:Generated_Source\PSoC5/OddEvenTimer_PM.c **** *
 101:Generated_Source\PSoC5/OddEvenTimer_PM.c **** * Parameters:
 102:Generated_Source\PSoC5/OddEvenTimer_PM.c **** *  void
 103:Generated_Source\PSoC5/OddEvenTimer_PM.c **** *
 104:Generated_Source\PSoC5/OddEvenTimer_PM.c **** * Return:
 105:Generated_Source\PSoC5/OddEvenTimer_PM.c **** *  void
 106:Generated_Source\PSoC5/OddEvenTimer_PM.c **** *
 107:Generated_Source\PSoC5/OddEvenTimer_PM.c **** * Global variables:
 108:Generated_Source\PSoC5/OddEvenTimer_PM.c **** *  OddEvenTimer_backup.TimerEnableState:  Is modified depending on the
 109:Generated_Source\PSoC5/OddEvenTimer_PM.c **** *  enable state of the block before entering sleep mode.
 110:Generated_Source\PSoC5/OddEvenTimer_PM.c **** *
 111:Generated_Source\PSoC5/OddEvenTimer_PM.c **** *******************************************************************************/
 112:Generated_Source\PSoC5/OddEvenTimer_PM.c **** void OddEvenTimer_Sleep(void) 
 113:Generated_Source\PSoC5/OddEvenTimer_PM.c **** {
 112              		.loc 1 113 0
 113              		.cfi_startproc
 114              		@ args = 0, pretend = 0, frame = 0
 115              		@ frame_needed = 0, uses_anonymous_args = 0
ARM GAS  C:\Users\nkhedkar\AppData\Local\Temp\ccDmXlH9.s 			page 5


 116 0000 08B5     		push	{r3, lr}
 117              		.cfi_def_cfa_offset 8
 118              		.cfi_offset 3, -8
 119              		.cfi_offset 14, -4
 114:Generated_Source\PSoC5/OddEvenTimer_PM.c ****     #if(!OddEvenTimer_UDB_CONTROL_REG_REMOVED)
 115:Generated_Source\PSoC5/OddEvenTimer_PM.c ****         /* Save Counter's enable state */
 116:Generated_Source\PSoC5/OddEvenTimer_PM.c ****         if(OddEvenTimer_CTRL_ENABLE == (OddEvenTimer_CONTROL & OddEvenTimer_CTRL_ENABLE))
 120              		.loc 1 116 0
 121 0002 084B     		ldr	r3, .L13
 122 0004 1B78     		ldrb	r3, [r3]	@ zero_extendqisi2
 123 0006 13F0800F 		tst	r3, #128
 124 000a 03D0     		beq	.L10
 117:Generated_Source\PSoC5/OddEvenTimer_PM.c ****         {
 118:Generated_Source\PSoC5/OddEvenTimer_PM.c ****             /* Timer is enabled */
 119:Generated_Source\PSoC5/OddEvenTimer_PM.c ****             OddEvenTimer_backup.TimerEnableState = 1u;
 125              		.loc 1 119 0
 126 000c 0122     		movs	r2, #1
 127 000e 064B     		ldr	r3, .L13+4
 128 0010 1A70     		strb	r2, [r3]
 129 0012 02E0     		b	.L11
 130              	.L10:
 120:Generated_Source\PSoC5/OddEvenTimer_PM.c ****         }
 121:Generated_Source\PSoC5/OddEvenTimer_PM.c ****         else
 122:Generated_Source\PSoC5/OddEvenTimer_PM.c ****         {
 123:Generated_Source\PSoC5/OddEvenTimer_PM.c ****             /* Timer is disabled */
 124:Generated_Source\PSoC5/OddEvenTimer_PM.c ****             OddEvenTimer_backup.TimerEnableState = 0u;
 131              		.loc 1 124 0
 132 0014 0022     		movs	r2, #0
 133 0016 044B     		ldr	r3, .L13+4
 134 0018 1A70     		strb	r2, [r3]
 135              	.L11:
 125:Generated_Source\PSoC5/OddEvenTimer_PM.c ****         }
 126:Generated_Source\PSoC5/OddEvenTimer_PM.c ****     #endif /* Back up enable state from the Timer control register */
 127:Generated_Source\PSoC5/OddEvenTimer_PM.c ****     OddEvenTimer_Stop();
 136              		.loc 1 127 0
 137 001a FFF7FEFF 		bl	OddEvenTimer_Stop
 138              	.LVL6:
 128:Generated_Source\PSoC5/OddEvenTimer_PM.c ****     OddEvenTimer_SaveConfig();
 139              		.loc 1 128 0
 140 001e FFF7FEFF 		bl	OddEvenTimer_SaveConfig
 141              	.LVL7:
 142 0022 08BD     		pop	{r3, pc}
 143              	.L14:
 144              		.align	2
 145              	.L13:
 146 0024 78650040 		.word	1073767800
 147 0028 00000000 		.word	.LANCHOR0
 148              		.cfi_endproc
 149              	.LFE2:
 150              		.size	OddEvenTimer_Sleep, .-OddEvenTimer_Sleep
 151              		.section	.text.OddEvenTimer_Wakeup,"ax",%progbits
 152              		.align	2
 153              		.global	OddEvenTimer_Wakeup
 154              		.thumb
 155              		.thumb_func
 156              		.type	OddEvenTimer_Wakeup, %function
 157              	OddEvenTimer_Wakeup:
ARM GAS  C:\Users\nkhedkar\AppData\Local\Temp\ccDmXlH9.s 			page 6


 158              	.LFB3:
 129:Generated_Source\PSoC5/OddEvenTimer_PM.c **** }
 130:Generated_Source\PSoC5/OddEvenTimer_PM.c **** 
 131:Generated_Source\PSoC5/OddEvenTimer_PM.c **** 
 132:Generated_Source\PSoC5/OddEvenTimer_PM.c **** /*******************************************************************************
 133:Generated_Source\PSoC5/OddEvenTimer_PM.c **** * Function Name: OddEvenTimer_Wakeup
 134:Generated_Source\PSoC5/OddEvenTimer_PM.c **** ********************************************************************************
 135:Generated_Source\PSoC5/OddEvenTimer_PM.c **** *
 136:Generated_Source\PSoC5/OddEvenTimer_PM.c **** * Summary:
 137:Generated_Source\PSoC5/OddEvenTimer_PM.c **** *  Restores and enables the user configuration
 138:Generated_Source\PSoC5/OddEvenTimer_PM.c **** *
 139:Generated_Source\PSoC5/OddEvenTimer_PM.c **** * Parameters:
 140:Generated_Source\PSoC5/OddEvenTimer_PM.c **** *  void
 141:Generated_Source\PSoC5/OddEvenTimer_PM.c **** *
 142:Generated_Source\PSoC5/OddEvenTimer_PM.c **** * Return:
 143:Generated_Source\PSoC5/OddEvenTimer_PM.c **** *  void
 144:Generated_Source\PSoC5/OddEvenTimer_PM.c **** *
 145:Generated_Source\PSoC5/OddEvenTimer_PM.c **** * Global variables:
 146:Generated_Source\PSoC5/OddEvenTimer_PM.c **** *  OddEvenTimer_backup.enableState:  Is used to restore the enable state of
 147:Generated_Source\PSoC5/OddEvenTimer_PM.c **** *  block on wakeup from sleep mode.
 148:Generated_Source\PSoC5/OddEvenTimer_PM.c **** *
 149:Generated_Source\PSoC5/OddEvenTimer_PM.c **** *******************************************************************************/
 150:Generated_Source\PSoC5/OddEvenTimer_PM.c **** void OddEvenTimer_Wakeup(void) 
 151:Generated_Source\PSoC5/OddEvenTimer_PM.c **** {
 159              		.loc 1 151 0
 160              		.cfi_startproc
 161              		@ args = 0, pretend = 0, frame = 0
 162              		@ frame_needed = 0, uses_anonymous_args = 0
 163 0000 08B5     		push	{r3, lr}
 164              		.cfi_def_cfa_offset 8
 165              		.cfi_offset 3, -8
 166              		.cfi_offset 14, -4
 152:Generated_Source\PSoC5/OddEvenTimer_PM.c ****     OddEvenTimer_RestoreConfig();
 167              		.loc 1 152 0
 168 0002 FFF7FEFF 		bl	OddEvenTimer_RestoreConfig
 169              	.LVL8:
 153:Generated_Source\PSoC5/OddEvenTimer_PM.c ****     #if(!OddEvenTimer_UDB_CONTROL_REG_REMOVED)
 154:Generated_Source\PSoC5/OddEvenTimer_PM.c ****         if(OddEvenTimer_backup.TimerEnableState == 1u)
 170              		.loc 1 154 0
 171 0006 034B     		ldr	r3, .L18
 172 0008 1B78     		ldrb	r3, [r3]	@ zero_extendqisi2
 173 000a 012B     		cmp	r3, #1
 174 000c 01D1     		bne	.L15
 155:Generated_Source\PSoC5/OddEvenTimer_PM.c ****         {     /* Enable Timer's operation */
 156:Generated_Source\PSoC5/OddEvenTimer_PM.c ****                 OddEvenTimer_Enable();
 175              		.loc 1 156 0
 176 000e FFF7FEFF 		bl	OddEvenTimer_Enable
 177              	.LVL9:
 178              	.L15:
 179 0012 08BD     		pop	{r3, pc}
 180              	.L19:
 181              		.align	2
 182              	.L18:
 183 0014 00000000 		.word	.LANCHOR0
 184              		.cfi_endproc
 185              	.LFE3:
 186              		.size	OddEvenTimer_Wakeup, .-OddEvenTimer_Wakeup
ARM GAS  C:\Users\nkhedkar\AppData\Local\Temp\ccDmXlH9.s 			page 7


 187              		.bss
 188              		.align	2
 189              		.set	.LANCHOR0,. + 0
 190              		.type	OddEvenTimer_backup, %object
 191              		.size	OddEvenTimer_backup, 12
 192              	OddEvenTimer_backup:
 193 0000 00000000 		.space	12
 193      00000000 
 193      00000000 
 194              		.text
 195              	.Letext0:
 196              		.file 2 "Generated_Source\\PSoC5\\cytypes.h"
 197              		.file 3 "Generated_Source\\PSoC5\\OddEvenTimer.h"